TN:
SF:/home/atcsol/eclipse-workspace_FIE/asw_pus_freertos_prac9/asw/components/ccbkgtcexec/include/public/ccbkgtcexec_iface_v1.h
FN:201,202,_ZN11CCBKGTCExec16EDROOM_CTX_Top_016EDROOMNewMessageEv
FNDA:5,_ZN11CCBKGTCExec16EDROOM_CTX_Top_016EDROOMNewMessageEv
FNF:1
FNH:1
DA:201,5
DA:202,5
LF:2
LH:2
end_of_record
TN:
SF:/home/atcsol/eclipse-workspace_FIE/asw_pus_freertos_prac9/asw/components/ccbkgtcexec/src/CCBKGTCExecB.cpp
FN:13,20,_ZN11CCBKGTCExec16EDROOM_CTX_Top_0C2ERS_
FN:155,160,_ZN11CCBKGTCExec16EDROOM_SUB_Top_010EDROOMInitEv
FN:172,182,_ZN11CCBKGTCExec16EDROOM_SUB_Top_014EDROOMIArrivalEv
FN:194,234,_ZN11CCBKGTCExec16EDROOM_SUB_Top_018EDROOMReadyArrivalEv
FN:22,30,_ZN11CCBKGTCExec16EDROOM_CTX_Top_0C2ERS0_
FN:34,54,_ZN11CCBKGTCExec16EDROOM_CTX_Top_024EDROOMSearchContextTransER14TEDROOMTransId
FN:58,70,_ZN11CCBKGTCExec16EDROOM_CTX_Top_010FExecBKGTCEv
FN:88,92,_ZN11CCBKGTCExec16EDROOM_SUB_Top_0C2ERS_
FN:96,149,_ZN11CCBKGTCExec16EDROOM_SUB_Top_015EDROOMBehaviourEv
FNDA:1,_ZN11CCBKGTCExec16EDROOM_CTX_Top_0C2ERS_
FNDA:1,_ZN11CCBKGTCExec16EDROOM_SUB_Top_010EDROOMInitEv
FNDA:1,_ZN11CCBKGTCExec16EDROOM_SUB_Top_014EDROOMIArrivalEv
FNDA:5,_ZN11CCBKGTCExec16EDROOM_SUB_Top_018EDROOMReadyArrivalEv
FNDA:0,_ZN11CCBKGTCExec16EDROOM_CTX_Top_0C2ERS0_
FNDA:0,_ZN11CCBKGTCExec16EDROOM_CTX_Top_024EDROOMSearchContextTransER14TEDROOMTransId
FNDA:4,_ZN11CCBKGTCExec16EDROOM_CTX_Top_010FExecBKGTCEv
FNDA:1,_ZN11CCBKGTCExec16EDROOM_SUB_Top_0C2ERS_
FNDA:1,_ZN11CCBKGTCExec16EDROOM_SUB_Top_015EDROOMBehaviourEv
FNF:9
FNH:7
DA:13,1
DA:15,1
DA:16,1
DA:17,1
DA:18,1
DA:20,1
DA:22,0
DA:24,0
DA:25,0
DA:26,0
DA:27,0
DA:30,0
DA:34,0
DA:38,0
DA:40,0
DA:43,0
DA:45,0
DA:46,0
DA:47,0
DA:48,0
DA:52,0
DA:58,4
DA:62,4
DA:65,4
DA:70,4
DA:88,1
DA:89,1
DA:92,1
DA:96,1
DA:103,1
DA:110,5
DA:114,1
DA:116,1
DA:117,1
DA:119,4
DA:121,4
DA:123,4
DA:124,4
DA:128,5
DA:132,0
DA:134,0
DA:135,0
DA:138,5
DA:140,5
DA:141,4
DA:145,4
DA:147,4
DA:149,0
DA:155,1
DA:158,1
DA:160,1
DA:172,1
DA:178,1
DA:179,1
DA:180,1
DA:194,5
DA:199,5
DA:204,5
DA:206,4
DA:209,4
DA:211,4
DA:215,4
DA:216,4
DA:217,4
DA:220,4
DA:224,4
DA:226,0
DA:230,4
DA:232,4
LF:69
LH:49
end_of_record
TN:
SF:/home/atcsol/eclipse-workspace_FIE/asw_pus_freertos_prac9/asw/components/ccbkgtcexec/src/CCBKGTCExecS.cpp
FN:102,114,_ZN11CCBKGTCExec13CEDROOMMemory9SetMemoryEjP14CEDROOMMessagePbjPN12CEDROOMQueue10CQueueNodeES3_
FN:13,30,_ZN11CCBKGTCExecC2Ejj15TEDROOMPriorityjPNS_13CEDROOMMemoryE
FN:41,46,_ZN11CCBKGTCExec12EDROOMConfigEv
FN:52,61,_ZN11CCBKGTCExec11EDROOMStartEv
FN:73,79,_ZN11CCBKGTCExec15EDROOMBehaviourEv
FNDA:1,_ZN11CCBKGTCExec13CEDROOMMemory9SetMemoryEjP14CEDROOMMessagePbjPN12CEDROOMQueue10CQueueNodeES3_
FNDA:1,_ZN11CCBKGTCExecC2Ejj15TEDROOMPriorityjPNS_13CEDROOMMemoryE
FNDA:0,_ZN11CCBKGTCExec12EDROOMConfigEv
FNDA:1,_ZN11CCBKGTCExec11EDROOMStartEv
FNDA:1,_ZN11CCBKGTCExec15EDROOMBehaviourEv
FNF:5
FNH:4
DA:13,1
DA:17,1
DA:24,1
DA:30,1
DA:41,0
DA:45,0
DA:52,1
DA:58,1
DA:60,1
DA:73,1
DA:76,1
DA:77,1
DA:79,0
DA:102,1
DA:110,1
DA:111,1
DA:114,1
LF:17
LH:14
end_of_record
TN:
SF:/home/atcsol/eclipse-workspace_FIE/asw_pus_freertos_prac9/asw/components/ccdronemng/include/public/ccdronemng_iface_v1.h
FN:245,246,_ZN10CCDroneMng16EDROOM_CTX_Top_016EDROOMNewMessageEv
FNDA:2,_ZN10CCDroneMng16EDROOM_CTX_Top_016EDROOMNewMessageEv
FNF:1
FNH:1
DA:245,2
DA:246,2
LF:2
LH:2
end_of_record
TN:
SF:/home/atcsol/eclipse-workspace_FIE/asw_pus_freertos_prac9/asw/components/ccdronemng/src/CCDroneMngB.cpp
FN:102,112,_ZN10CCDroneMng16EDROOM_CTX_Top_010FGetConfigEv
FN:116,127,_ZN10CCDroneMng16EDROOM_CTX_Top_015FInitFlightPlanEv
FN:13,23,_ZN10CCDroneMng16EDROOM_CTX_Top_0C2ERS_R7Pr_Time
FN:131,142,_ZN10CCDroneMng16EDROOM_CTX_Top_013FProgNextCtrlEv
FN:146,154,_ZN10CCDroneMng16EDROOM_CTX_Top_016FReplyDroneReadyEv
FN:158,164,_ZN10CCDroneMng16EDROOM_CTX_Top_08FToReadyEv
FN:168,174,_ZN10CCDroneMng16EDROOM_CTX_Top_015GExecFlightPlanEv
FN:178,184,_ZN10CCDroneMng16EDROOM_CTX_Top_015GFlightPlanDoneEv
FN:202,207,_ZN10CCDroneMng16EDROOM_SUB_Top_0C2ERS_
FN:211,349,_ZN10CCDroneMng16EDROOM_SUB_Top_015EDROOMBehaviourEv
FN:25,35,_ZN10CCDroneMng16EDROOM_CTX_Top_0C2ERS0_
FN:355,360,_ZN10CCDroneMng16EDROOM_SUB_Top_010EDROOMInitEv
FN:372,382,_ZN10CCDroneMng16EDROOM_SUB_Top_014EDROOMIArrivalEv
FN:39,59,_ZN10CCDroneMng16EDROOM_CTX_Top_024EDROOMSearchContextTransER14TEDROOMTransId
FN:394,434,_ZN10CCDroneMng16EDROOM_SUB_Top_021EDROOMSelfTestArrivalEv
FN:446,486,_ZN10CCDroneMng16EDROOM_SUB_Top_018EDROOMReadyArrivalEv
FN:498,551,_ZN10CCDroneMng16EDROOM_SUB_Top_023EDROOMFlightPlanArrivalEv
FN:63,70,_ZN10CCDroneMng16EDROOM_CTX_Top_014FDroneSelfTestEv
FN:74,88,_ZN10CCDroneMng16EDROOM_CTX_Top_012FExecDroneTCEv
FN:92,98,_ZN10CCDroneMng16EDROOM_CTX_Top_020FFlightCtrlAlgorithmEv
FNDA:1,_ZN10CCDroneMng16EDROOM_CTX_Top_010FGetConfigEv
FNDA:0,_ZN10CCDroneMng16EDROOM_CTX_Top_015FInitFlightPlanEv
FNDA:1,_ZN10CCDroneMng16EDROOM_CTX_Top_0C2ERS_R7Pr_Time
FNDA:0,_ZN10CCDroneMng16EDROOM_CTX_Top_013FProgNextCtrlEv
FNDA:1,_ZN10CCDroneMng16EDROOM_CTX_Top_016FReplyDroneReadyEv
FNDA:0,_ZN10CCDroneMng16EDROOM_CTX_Top_08FToReadyEv
FNDA:0,_ZN10CCDroneMng16EDROOM_CTX_Top_015GExecFlightPlanEv
FNDA:0,_ZN10CCDroneMng16EDROOM_CTX_Top_015GFlightPlanDoneEv
FNDA:1,_ZN10CCDroneMng16EDROOM_SUB_Top_0C2ERS_
FNDA:1,_ZN10CCDroneMng16EDROOM_SUB_Top_015EDROOMBehaviourEv
FNDA:0,_ZN10CCDroneMng16EDROOM_CTX_Top_0C2ERS0_
FNDA:1,_ZN10CCDroneMng16EDROOM_SUB_Top_010EDROOMInitEv
FNDA:1,_ZN10CCDroneMng16EDROOM_SUB_Top_014EDROOMIArrivalEv
FNDA:0,_ZN10CCDroneMng16EDROOM_CTX_Top_024EDROOMSearchContextTransER14TEDROOMTransId
FNDA:1,_ZN10CCDroneMng16EDROOM_SUB_Top_021EDROOMSelfTestArrivalEv
FNDA:1,_ZN10CCDroneMng16EDROOM_SUB_Top_018EDROOMReadyArrivalEv
FNDA:0,_ZN10CCDroneMng16EDROOM_SUB_Top_023EDROOMFlightPlanArrivalEv
FNDA:1,_ZN10CCDroneMng16EDROOM_CTX_Top_014FDroneSelfTestEv
FNDA:0,_ZN10CCDroneMng16EDROOM_CTX_Top_012FExecDroneTCEv
FNDA:0,_ZN10CCDroneMng16EDROOM_CTX_Top_020FFlightCtrlAlgorithmEv
FNF:20
FNH:10
DA:13,1
DA:14,1
DA:16,1
DA:17,1
DA:18,1
DA:19,1
DA:20,1
DA:21,1
DA:23,1
DA:25,0
DA:27,0
DA:28,0
DA:29,0
DA:30,0
DA:31,0
DA:32,0
DA:35,0
DA:39,0
DA:43,0
DA:45,0
DA:48,0
DA:50,0
DA:51,0
DA:52,0
DA:53,0
DA:57,0
DA:63,1
DA:68,1
DA:70,1
DA:74,0
DA:78,0
DA:86,0
DA:88,0
DA:92,0
DA:96,0
DA:98,0
DA:102,1
DA:106,1
DA:110,1
DA:112,1
DA:116,0
DA:120,0
DA:121,0
DA:122,0
DA:123,0
DA:124,0
DA:126,0
DA:127,0
DA:131,0
DA:135,0
DA:138,0
DA:139,0
DA:141,0
DA:142,0
DA:146,1
DA:151,1
DA:153,1
DA:154,1
DA:158,0
DA:162,0
DA:164,0
DA:168,0
DA:172,0
DA:178,0
DA:182,0
DA:202,1
DA:204,1
DA:207,1
DA:211,1
DA:218,1
DA:225,2
DA:229,1
DA:231,1
DA:232,1
DA:234,1
DA:236,1
DA:238,1
DA:240,1
DA:241,1
DA:243,0
DA:246,0
DA:248,0
DA:251,0
DA:254,0
DA:258,0
DA:265,0
DA:269,0
DA:271,0
DA:273,0
DA:276,0
DA:278,0
DA:281,0
DA:284,0
DA:288,0
DA:294,0
DA:297,0
DA:301,0
DA:303,0
DA:305,0
DA:307,0
DA:309,0
DA:310,0
DA:314,2
DA:318,0
DA:320,0
DA:321,0
DA:324,1
DA:326,1
DA:328,1
DA:329,1
DA:332,1
DA:334,1
DA:335,0
DA:338,0
DA:340,0
DA:341,0
DA:345,1
DA:347,1
DA:349,0
DA:355,1
DA:358,1
DA:360,1
DA:372,1
DA:378,1
DA:379,1
DA:380,1
DA:394,1
DA:399,1
DA:404,1
DA:406,1
DA:409,1
DA:411,1
DA:415,1
DA:416,1
DA:417,1
DA:420,1
DA:424,1
DA:426,0
DA:430,1
DA:432,1
DA:446,1
DA:451,1
DA:456,1
DA:458,0
DA:461,0
DA:463,0
DA:467,0
DA:468,0
DA:469,0
DA:472,0
DA:476,0
DA:478,0
DA:482,0
DA:484,0
DA:498,0
DA:503,0
DA:508,0
DA:510,0
DA:513,0
DA:515,0
DA:519,0
DA:520,0
DA:521,0
DA:524,0
DA:526,0
DA:528,0
DA:532,0
DA:533,0
DA:534,0
DA:537,0
DA:541,0
DA:543,0
DA:547,0
DA:549,0
LF:174
LH:66
end_of_record
TN:
SF:/home/atcsol/eclipse-workspace_FIE/asw_pus_freertos_prac9/asw/components/ccdronemng/src/CCDroneMngS.cpp
FN:114,128,_ZN10CCDroneMng13CEDROOMMemory9SetMemoryEjP14CEDROOMMessagePbjPN12CEDROOMQueue10CQueueNodeES3_
FN:13,38,_ZN10CCDroneMngC2Ejj15TEDROOMPriorityjPNS_13CEDROOMMemoryE
FN:49,54,_ZN10CCDroneMng12EDROOMConfigEv
FN:60,73,_ZN10CCDroneMng11EDROOMStartEv
FN:85,91,_ZN10CCDroneMng15EDROOMBehaviourEv
FNDA:1,_ZN10CCDroneMng13CEDROOMMemory9SetMemoryEjP14CEDROOMMessagePbjPN12CEDROOMQueue10CQueueNodeES3_
FNDA:1,_ZN10CCDroneMngC2Ejj15TEDROOMPriorityjPNS_13CEDROOMMemoryE
FNDA:0,_ZN10CCDroneMng12EDROOMConfigEv
FNDA:1,_ZN10CCDroneMng11EDROOMStartEv
FNDA:1,_ZN10CCDroneMng15EDROOMBehaviourEv
FNF:5
FNH:4
DA:13,1
DA:17,1
DA:24,1
DA:28,1
DA:32,2
DA:38,1
DA:49,0
DA:53,0
DA:60,1
DA:66,1
DA:70,1
DA:72,1
DA:85,1
DA:88,1
DA:89,1
DA:91,0
DA:114,1
DA:122,1
DA:123,1
DA:125,1
DA:128,1
LF:21
LH:18
end_of_record
TN:
SF:/home/atcsol/eclipse-workspace_FIE/asw_pus_freertos_prac9/asw/components/cchk_fdirmng/include/public/cchk_fdirmng_iface_v1.h
FN:254,255,_ZN12CCHK_FDIRMng16EDROOM_CTX_Top_016EDROOMNewMessageEv
FNDA:107,_ZN12CCHK_FDIRMng16EDROOM_CTX_Top_016EDROOMNewMessageEv
FNF:1
FNH:1
DA:254,107
DA:255,107
LF:2
LH:2
end_of_record
TN:
SF:/home/atcsol/eclipse-workspace_FIE/asw_pus_freertos_prac9/asw/components/cchk_fdirmng/src/CCHK_FDIRMngB.cpp
FN:101,112,_ZN12CCHK_FDIRMng16EDROOM_CTX_Top_012FFwdEvActionEv
FN:116,129,_ZN12CCHK_FDIRMng16EDROOM_CTX_Top_012FInitHK_FDIREv
FN:13,25,_ZN12CCHK_FDIRMng16EDROOM_CTX_Top_0C2ERS_R7Pr_TimeRNS0_21CEDROOMPOOLCDEvActionE
FN:133,139,_ZN12CCHK_FDIRMng16EDROOM_CTX_Top_016GPendingEvActionEv
FN:147,152,_ZN12CCHK_FDIRMng16EDROOM_CTX_Top_021CEDROOMPOOLCDEvActionC2EjP10CDEvActionPb
FN:154,157,_ZN12CCHK_FDIRMng16EDROOM_CTX_Top_021CEDROOMPOOLCDEvAction9AllocDataEv
FN:171,181,_ZN12CCHK_FDIRMng16EDROOM_SUB_Top_0C2ERS_PNS_13CEDROOMMemoryE
FN:185,270,_ZN12CCHK_FDIRMng16EDROOM_SUB_Top_015EDROOMBehaviourEv
FN:27,38,_ZN12CCHK_FDIRMng16EDROOM_CTX_Top_0C2ERS0_
FN:276,281,_ZN12CCHK_FDIRMng16EDROOM_SUB_Top_010EDROOMInitEv
FN:293,303,_ZN12CCHK_FDIRMng16EDROOM_SUB_Top_014EDROOMIArrivalEv
FN:315,368,_ZN12CCHK_FDIRMng16EDROOM_SUB_Top_018EDROOMReadyArrivalEv
FN:42,62,_ZN12CCHK_FDIRMng16EDROOM_CTX_Top_024EDROOMSearchContextTransER14TEDROOMTransId
FN:66,85,_ZN12CCHK_FDIRMng16EDROOM_CTX_Top_010FDoHK_FDIREv
FN:89,97,_ZN12CCHK_FDIRMng16EDROOM_CTX_Top_015FExecHK_FDIR_TCEv
FNDA:1,_ZN12CCHK_FDIRMng16EDROOM_CTX_Top_012FFwdEvActionEv
FNDA:1,_ZN12CCHK_FDIRMng16EDROOM_CTX_Top_012FInitHK_FDIREv
FNDA:1,_ZN12CCHK_FDIRMng16EDROOM_CTX_Top_0C2ERS_R7Pr_TimeRNS0_21CEDROOMPOOLCDEvActionE
FNDA:99,_ZN12CCHK_FDIRMng16EDROOM_CTX_Top_016GPendingEvActionEv
FNDA:1,_ZN12CCHK_FDIRMng16EDROOM_CTX_Top_021CEDROOMPOOLCDEvActionC2EjP10CDEvActionPb
FNDA:1,_ZN12CCHK_FDIRMng16EDROOM_CTX_Top_021CEDROOMPOOLCDEvAction9AllocDataEv
FNDA:1,_ZN12CCHK_FDIRMng16EDROOM_SUB_Top_0C2ERS_PNS_13CEDROOMMemoryE
FNDA:1,_ZN12CCHK_FDIRMng16EDROOM_SUB_Top_015EDROOMBehaviourEv
FNDA:0,_ZN12CCHK_FDIRMng16EDROOM_CTX_Top_0C2ERS0_
FNDA:1,_ZN12CCHK_FDIRMng16EDROOM_SUB_Top_010EDROOMInitEv
FNDA:1,_ZN12CCHK_FDIRMng16EDROOM_SUB_Top_014EDROOMIArrivalEv
FNDA:107,_ZN12CCHK_FDIRMng16EDROOM_SUB_Top_018EDROOMReadyArrivalEv
FNDA:0,_ZN12CCHK_FDIRMng16EDROOM_CTX_Top_024EDROOMSearchContextTransER14TEDROOMTransId
FNDA:100,_ZN12CCHK_FDIRMng16EDROOM_CTX_Top_010FDoHK_FDIREv
FNDA:7,_ZN12CCHK_FDIRMng16EDROOM_CTX_Top_015FExecHK_FDIR_TCEv
FNF:15
FNH:13
DA:13,1
DA:15,1
DA:17,1
DA:18,1
DA:19,1
DA:20,1
DA:21,1
DA:22,1
DA:23,1
DA:25,1
DA:27,0
DA:29,0
DA:30,0
DA:31,0
DA:32,0
DA:33,0
DA:34,0
DA:35,0
DA:38,0
DA:42,0
DA:46,0
DA:48,0
DA:51,0
DA:53,0
DA:54,0
DA:55,0
DA:56,0
DA:60,0
DA:66,100
DA:70,100
DA:72,100
DA:73,100
DA:75,100
DA:77,100
DA:82,100
DA:84,100
DA:85,99
DA:89,7
DA:93,7
DA:95,7
DA:97,7
DA:101,1
DA:105,1
DA:108,1
DA:111,1
DA:112,1
DA:116,1
DA:120,1
DA:122,1
DA:123,1
DA:124,1
DA:128,1
DA:129,1
DA:133,99
DA:137,99
DA:147,1
DA:148,1
DA:150,1
DA:152,1
DA:154,1
DA:156,1
DA:171,1
DA:172,1
DA:174,1
DA:175,1
DA:176,1
DA:177,1
DA:178,1
DA:181,1
DA:185,1
DA:192,1
DA:199,108
DA:203,1
DA:205,1
DA:207,1
DA:208,1
DA:210,7
DA:212,7
DA:214,7
DA:215,7
DA:217,100
DA:220,100
DA:222,99
DA:225,1
DA:228,1
DA:232,1
DA:239,98
DA:243,98
DA:245,99
DA:249,107
DA:253,0
DA:255,0
DA:256,0
DA:259,107
DA:261,107
DA:262,107
DA:266,107
DA:268,107
DA:270,0
DA:276,1
DA:279,1
DA:281,1
DA:293,1
DA:299,1
DA:300,1
DA:301,1
DA:315,107
DA:320,107
DA:325,107
DA:327,107
DA:330,7
DA:332,7
DA:336,7
DA:337,7
DA:338,7
DA:341,7
DA:343,100
DA:345,100
DA:349,100
DA:350,100
DA:351,100
DA:354,100
DA:358,107
DA:360,0
DA:364,107
DA:366,107
LF:126
LH:103
end_of_record
TN:
SF:/home/atcsol/eclipse-workspace_FIE/asw_pus_freertos_prac9/asw/components/cchk_fdirmng/src/CCHK_FDIRMngS.cpp
FN:114,128,_ZN12CCHK_FDIRMng13CEDROOMMemory9SetMemoryEjP14CEDROOMMessagePbjPN12CEDROOMQueue10CQueueNodeES3_
FN:13,38,_ZN12CCHK_FDIRMngC2Ejj15TEDROOMPriorityjPNS_13CEDROOMMemoryE
FN:49,54,_ZN12CCHK_FDIRMng12EDROOMConfigEv
FN:60,73,_ZN12CCHK_FDIRMng11EDROOMStartEv
FN:85,91,_ZN12CCHK_FDIRMng15EDROOMBehaviourEv
FNDA:1,_ZN12CCHK_FDIRMng13CEDROOMMemory9SetMemoryEjP14CEDROOMMessagePbjPN12CEDROOMQueue10CQueueNodeES3_
FNDA:1,_ZN12CCHK_FDIRMngC2Ejj15TEDROOMPriorityjPNS_13CEDROOMMemoryE
FNDA:0,_ZN12CCHK_FDIRMng12EDROOMConfigEv
FNDA:1,_ZN12CCHK_FDIRMng11EDROOMStartEv
FNDA:1,_ZN12CCHK_FDIRMng15EDROOMBehaviourEv
FNF:5
FNH:4
DA:13,1
DA:17,1
DA:24,1
DA:28,1
DA:32,2
DA:38,1
DA:49,0
DA:53,0
DA:60,1
DA:66,1
DA:70,1
DA:72,1
DA:85,1
DA:88,1
DA:89,1
DA:91,0
DA:114,1
DA:122,1
DA:123,1
DA:125,1
DA:128,1
LF:21
LH:18
end_of_record
TN:
SF:/home/atcsol/eclipse-workspace_FIE/asw_pus_freertos_prac9/asw/components/cctcmanager/include/public/cctcmanager_iface_v1.h
FN:148,148,_ZN11CCTCManager33CEDROOMPOOLIRQ18CDTCMemDescriptorC2Ev
FN:150,150,_ZN11CCTCManager33CEDROOMPOOLIRQ18CDTCMemDescriptor9AllocDataEv
FN:317,318,_ZN11CCTCManager16EDROOM_CTX_Top_016EDROOMNewMessageEv
FNDA:1,_ZN11CCTCManager33CEDROOMPOOLIRQ18CDTCMemDescriptorC2Ev
FNDA:15,_ZN11CCTCManager33CEDROOMPOOLIRQ18CDTCMemDescriptor9AllocDataEv
FNDA:16,_ZN11CCTCManager16EDROOM_CTX_Top_016EDROOMNewMessageEv
FNF:3
FNH:3
DA:148,1
DA:150,15
DA:317,16
DA:318,16
LF:4
LH:4
end_of_record
TN:
SF:/home/atcsol/eclipse-workspace_FIE/asw_pus_freertos_prac9/asw/components/cctcmanager/src/CCTCManagerB.cpp
FN:114,127,_ZN11CCTCManager16EDROOM_CTX_Top_011FFwdDroneTCEv
FN:13,33,_ZN11CCTCManager16EDROOM_CTX_Top_0C2ERS_R16CDTCAcceptReportR11CDTCHandlerR12CDTCExecCtrlRNS0_22CEDROOMPOOLCDTCHandlerERNS0_24CEDROOMPOOLCDDroneConfigE
FN:131,142,_ZN11CCTCManager16EDROOM_CTX_Top_013FFwdHK_FDIRTCEv
FN:146,157,_ZN11CCTCManager16EDROOM_CTX_Top_012FGetEvActionEv
FN:161,173,_ZN11CCTCManager16EDROOM_CTX_Top_06FGetTCEv
FN:177,189,_ZN11CCTCManager16EDROOM_CTX_Top_05FInitEv
FN:193,201,_ZN11CCTCManager16EDROOM_CTX_Top_017FMngTCAcceptationEv
FN:205,214,_ZN11CCTCManager16EDROOM_CTX_Top_015FMngTCRejectionEv
FN:218,224,_ZN11CCTCManager16EDROOM_CTX_Top_07FRebootEv
FN:228,234,_ZN11CCTCManager16EDROOM_CTX_Top_011FTCExecCtrlEv
FN:238,244,_ZN11CCTCManager16EDROOM_CTX_Top_09GAcceptTCEv
FN:248,255,_ZN11CCTCManager16EDROOM_CTX_Top_09GFwdBKGTCEv
FN:259,265,_ZN11CCTCManager16EDROOM_CTX_Top_011GFwdDroneTCEv
FN:269,275,_ZN11CCTCManager16EDROOM_CTX_Top_013GFwdToHK_FDIREv
FN:279,285,_ZN11CCTCManager16EDROOM_CTX_Top_09GToRebootEv
FN:299,303,_ZN11CCTCManager18EDROOM_CTX_Ready_1C2ERNS_16EDROOM_CTX_Top_0E
FN:305,310,_ZN11CCTCManager18EDROOM_CTX_Ready_1C2ERS0_
FN:314,367,_ZN11CCTCManager18EDROOM_CTX_Ready_124EDROOMSearchContextTransER14TEDROOMTransId
FN:35,51,_ZN11CCTCManager16EDROOM_CTX_Top_0C2ERS0_
FN:371,384,_ZN11CCTCManager18EDROOM_CTX_Ready_117FInvokeDroneSetUpEv
FN:392,397,_ZN11CCTCManager16EDROOM_CTX_Top_022CEDROOMPOOLCDTCHandlerC2EjP11CDTCHandlerPb
FN:399,402,_ZN11CCTCManager16EDROOM_CTX_Top_022CEDROOMPOOLCDTCHandler9AllocDataEv
FN:406,411,_ZN11CCTCManager16EDROOM_CTX_Top_024CEDROOMPOOLCDDroneConfigC2EjP13CDDroneConfigPb
FN:413,416,_ZN11CCTCManager16EDROOM_CTX_Top_024CEDROOMPOOLCDDroneConfig9AllocDataEv
FN:430,447,_ZN11CCTCManager16EDROOM_SUB_Top_0C2ERS_PNS_13CEDROOMMemoryE
FN:451,624,_ZN11CCTCManager16EDROOM_SUB_Top_015EDROOMBehaviourEv
FN:55,75,_ZN11CCTCManager16EDROOM_CTX_Top_024EDROOMSearchContextTransER14TEDROOMTransId
FN:630,636,_ZN11CCTCManager16EDROOM_SUB_Top_010EDROOMInitEv
FN:648,658,_ZN11CCTCManager16EDROOM_SUB_Top_014EDROOMIArrivalEv
FN:670,680,_ZN11CCTCManager16EDROOM_SUB_Top_020EDROOMValidTCArrivalEv
FN:692,714,_ZN11CCTCManager16EDROOM_SUB_Top_019EDROOMRebootArrivalEv
FN:728,734,_ZN11CCTCManager18EDROOM_SUB_Ready_1C2ENS_16EDROOM_CTX_Top_014TEDROOMStateIDERS1_
FN:738,816,_ZN11CCTCManager18EDROOM_SUB_Ready_17ArrivalENS_16EDROOM_CTX_Top_019TEDROOMTransitionIDE
FN:79,85,_ZN11CCTCManager16EDROOM_CTX_Top_011FExecPrioTCEv
FN:822,825,_ZN11CCTCManager18EDROOM_SUB_Ready_110EDROOMInitEv
FN:837,859,_ZN11CCTCManager18EDROOM_SUB_Ready_123EDROOMSubEstado0ArrivalEv
FN:871,893,_ZN11CCTCManager18EDROOM_SUB_Ready_120EDROOMStandByArrivalEv
FN:89,95,_ZN11CCTCManager16EDROOM_CTX_Top_013FExecRebootTCEv
FN:99,110,_ZN11CCTCManager16EDROOM_CTX_Top_09FFwdBKGTCEv
FNDA:0,_ZN11CCTCManager16EDROOM_CTX_Top_011FFwdDroneTCEv
FNDA:1,_ZN11CCTCManager16EDROOM_CTX_Top_0C2ERS_R16CDTCAcceptReportR11CDTCHandlerR12CDTCExecCtrlRNS0_22CEDROOMPOOLCDTCHandlerERNS0_24CEDROOMPOOLCDDroneConfigE
FNDA:7,_ZN11CCTCManager16EDROOM_CTX_Top_013FFwdHK_FDIRTCEv
FNDA:1,_ZN11CCTCManager16EDROOM_CTX_Top_012FGetEvActionEv
FNDA:15,_ZN11CCTCManager16EDROOM_CTX_Top_06FGetTCEv
FNDA:1,_ZN11CCTCManager16EDROOM_CTX_Top_05FInitEv
FNDA:14,_ZN11CCTCManager16EDROOM_CTX_Top_017FMngTCAcceptationEv
FNDA:1,_ZN11CCTCManager16EDROOM_CTX_Top_015FMngTCRejectionEv
FNDA:1,_ZN11CCTCManager16EDROOM_CTX_Top_07FRebootEv
FNDA:15,_ZN11CCTCManager16EDROOM_CTX_Top_011FTCExecCtrlEv
FNDA:15,_ZN11CCTCManager16EDROOM_CTX_Top_09GAcceptTCEv
FNDA:7,_ZN11CCTCManager16EDROOM_CTX_Top_09GFwdBKGTCEv
FNDA:3,_ZN11CCTCManager16EDROOM_CTX_Top_011GFwdDroneTCEv
FNDA:14,_ZN11CCTCManager16EDROOM_CTX_Top_013GFwdToHK_FDIREv
FNDA:15,_ZN11CCTCManager16EDROOM_CTX_Top_09GToRebootEv
FNDA:1,_ZN11CCTCManager18EDROOM_CTX_Ready_1C2ERNS_16EDROOM_CTX_Top_0E
FNDA:0,_ZN11CCTCManager18EDROOM_CTX_Ready_1C2ERS0_
FNDA:16,_ZN11CCTCManager18EDROOM_CTX_Ready_124EDROOMSearchContextTransER14TEDROOMTransId
FNDA:1,_ZN11CCTCManager16EDROOM_CTX_Top_0C2ERS0_
FNDA:1,_ZN11CCTCManager18EDROOM_CTX_Ready_117FInvokeDroneSetUpEv
FNDA:1,_ZN11CCTCManager16EDROOM_CTX_Top_022CEDROOMPOOLCDTCHandlerC2EjP11CDTCHandlerPb
FNDA:11,_ZN11CCTCManager16EDROOM_CTX_Top_022CEDROOMPOOLCDTCHandler9AllocDataEv
FNDA:1,_ZN11CCTCManager16EDROOM_CTX_Top_024CEDROOMPOOLCDDroneConfigC2EjP13CDDroneConfigPb
FNDA:1,_ZN11CCTCManager16EDROOM_CTX_Top_024CEDROOMPOOLCDDroneConfig9AllocDataEv
FNDA:1,_ZN11CCTCManager16EDROOM_SUB_Top_0C2ERS_PNS_13CEDROOMMemoryE
FNDA:1,_ZN11CCTCManager16EDROOM_SUB_Top_015EDROOMBehaviourEv
FNDA:0,_ZN11CCTCManager16EDROOM_CTX_Top_024EDROOMSearchContextTransER14TEDROOMTransId
FNDA:1,_ZN11CCTCManager16EDROOM_SUB_Top_010EDROOMInitEv
FNDA:1,_ZN11CCTCManager16EDROOM_SUB_Top_014EDROOMIArrivalEv
FNDA:15,_ZN11CCTCManager16EDROOM_SUB_Top_020EDROOMValidTCArrivalEv
FNDA:0,_ZN11CCTCManager16EDROOM_SUB_Top_019EDROOMRebootArrivalEv
FNDA:1,_ZN11CCTCManager18EDROOM_SUB_Ready_1C2ENS_16EDROOM_CTX_Top_014TEDROOMStateIDERS1_
FNDA:16,_ZN11CCTCManager18EDROOM_SUB_Ready_17ArrivalENS_16EDROOM_CTX_Top_019TEDROOMTransitionIDE
FNDA:3,_ZN11CCTCManager16EDROOM_CTX_Top_011FExecPrioTCEv
FNDA:1,_ZN11CCTCManager18EDROOM_SUB_Ready_110EDROOMInitEv
FNDA:0,_ZN11CCTCManager18EDROOM_SUB_Ready_123EDROOMSubEstado0ArrivalEv
FNDA:16,_ZN11CCTCManager18EDROOM_SUB_Ready_120EDROOMStandByArrivalEv
FNDA:1,_ZN11CCTCManager16EDROOM_CTX_Top_013FExecRebootTCEv
FNDA:4,_ZN11CCTCManager16EDROOM_CTX_Top_09FFwdBKGTCEv
FNF:39
FNH:34
DA:13,1
DA:18,1
DA:20,1
DA:21,1
DA:22,1
DA:23,1
DA:24,1
DA:25,1
DA:26,1
DA:27,1
DA:28,1
DA:29,1
DA:30,1
DA:31,1
DA:33,1
DA:35,1
DA:37,1
DA:38,1
DA:39,1
DA:40,1
DA:41,1
DA:42,1
DA:43,1
DA:44,1
DA:45,1
DA:46,1
DA:47,1
DA:48,1
DA:51,1
DA:55,0
DA:59,0
DA:61,0
DA:64,0
DA:66,0
DA:67,0
DA:68,0
DA:69,0
DA:73,0
DA:79,3
DA:83,3
DA:85,3
DA:89,1
DA:93,1
DA:95,1
DA:99,4
DA:103,4
DA:107,4
DA:109,4
DA:110,4
DA:114,0
DA:118,0
DA:122,0
DA:126,0
DA:127,0
DA:131,7
DA:135,7
DA:139,7
DA:141,7
DA:142,7
DA:146,1
DA:150,1
DA:155,1
DA:157,1
DA:161,15
DA:165,15
DA:168,15
DA:171,15
DA:173,15
DA:177,1
DA:181,1
DA:183,1
DA:185,1
DA:187,1
DA:189,1
DA:193,14
DA:198,14
DA:201,14
DA:205,1
DA:211,1
DA:214,1
DA:218,1
DA:222,1
DA:224,0
DA:228,15
DA:232,15
DA:234,15
DA:238,15
DA:242,15
DA:248,7
DA:252,7
DA:259,3
DA:263,3
DA:269,14
DA:273,14
DA:279,15
DA:283,15
DA:299,1
DA:300,1
DA:303,1
DA:305,0
DA:306,0
DA:307,0
DA:310,0
DA:314,16
DA:318,16
DA:320,16
DA:325,15
DA:327,15
DA:330,15
DA:331,15
DA:332,15
DA:335,15
DA:339,1
DA:341,1
DA:344,1
DA:345,1
DA:346,1
DA:349,1
DA:353,16
DA:357,0
DA:358,0
DA:360,0
DA:365,16
DA:371,1
DA:375,1
DA:377,1
DA:378,1
DA:379,1
DA:380,1
DA:382,2
DA:383,1
DA:384,1
DA:392,1
DA:393,1
DA:395,1
DA:397,1
DA:399,11
DA:401,11
DA:406,1
DA:407,1
DA:409,1
DA:411,1
DA:413,1
DA:415,1
DA:430,1
DA:431,1
DA:433,1
DA:434,1
DA:435,1
DA:436,1
DA:437,1
DA:438,1
DA:439,1
DA:440,1
DA:441,1
DA:442,1
DA:443,1
DA:444,3
DA:447,1
DA:451,1
DA:458,1
DA:465,32
DA:469,1
DA:471,1
DA:473,1
DA:474,1
DA:476,15
DA:479,15
DA:481,15
DA:484,14
DA:487,14
DA:491,14
DA:497,1
DA:500,1
DA:504,1
DA:506,15
DA:508,1
DA:510,1
DA:512,1
DA:513,1
DA:515,15
DA:518,15
DA:520,15
DA:523,1
DA:526,1
DA:530,1
DA:533,14
DA:536,7
DA:539,7
DA:543,7
DA:546,7
DA:549,4
DA:552,4
DA:556,4
DA:559,3
DA:562,0
DA:565,0
DA:569,0
DA:575,3
DA:578,3
DA:582,3
DA:584,15
DA:588,32
DA:592,0
DA:594,0
DA:595,0
DA:598,16
DA:600,16
DA:601,16
DA:602,16
DA:605,1
DA:607,1
DA:609,0
DA:610,0
DA:613,15
DA:615,15
DA:616,15
DA:620,31
DA:622,31
DA:624,0
DA:630,1
DA:633,1
DA:634,1
DA:636,1
DA:648,1
DA:654,1
DA:655,1
DA:656,1
DA:670,15
DA:676,15
DA:677,15
DA:678,15
DA:692,0
DA:697,0
DA:702,0
DA:704,0
DA:706,0
DA:710,0
DA:712,0
DA:728,1
DA:730,1
DA:731,1
DA:733,1
DA:734,1
DA:738,16
DA:745,16
DA:748,1
DA:750,1
DA:751,1
DA:752,1
DA:753,3
DA:755,3
DA:756,3
DA:757,3
DA:758,7
DA:760,7
DA:761,7
DA:762,7
DA:763,4
DA:765,4
DA:766,4
DA:767,4
DA:768,0
DA:770,0
DA:771,0
DA:772,0
DA:774,1
DA:775,1
DA:776,1
DA:778,1
DA:779,1
DA:780,0
DA:782,0
DA:783,0
DA:784,0
DA:785,0
DA:787,0
DA:788,0
DA:789,0
DA:793,16
DA:797,0
DA:799,0
DA:800,0
DA:803,16
DA:805,16
DA:806,16
DA:810,16
DA:812,16
DA:814,16
DA:822,1
DA:825,1
DA:837,0
DA:842,0
DA:847,0
DA:849,0
DA:851,0
DA:855,0
DA:857,0
DA:871,16
DA:876,16
DA:881,16
DA:883,16
DA:885,16
DA:889,16
DA:891,16
LF:305
LH:245
end_of_record
TN:
SF:/home/atcsol/eclipse-workspace_FIE/asw_pus_freertos_prac9/asw/components/cctcmanager/src/CCTCManagerS.cpp
FN:126,147,_ZN11CCTCManagerC2Ejj15TEDROOMPriorityjPNS_13CEDROOMMemoryE
FN:158,163,_ZN11CCTCManager12EDROOMConfigEv
FN:169,178,_ZN11CCTCManager11EDROOMStartEv
FN:190,200,_ZN11CCTCManager15EDROOMBehaviourEv
FN:223,235,_ZN11CCTCManager13CEDROOMMemory9SetMemoryEjP14CEDROOMMessagePbjPN12CEDROOMQueue10CQueueNodeES3_
FN:25,41,_ZN11CCTCManager33EDROOMIRQ18HandlerTopHalfFunctionEv
FN:47,51,_ZN11CCTCManager18EDROOMIRQ18HandlerEv
FN:57,59,_ZN11CCTCManager22EDROOMIRQ18IdleHandlerEv
FN:65,106,_ZN11CCTCManager25EDROOMIRQ18BottomHalfTaskEv
FNDA:1,_ZN11CCTCManagerC2Ejj15TEDROOMPriorityjPNS_13CEDROOMMemoryE
FNDA:0,_ZN11CCTCManager12EDROOMConfigEv
FNDA:1,_ZN11CCTCManager11EDROOMStartEv
FNDA:1,_ZN11CCTCManager15EDROOMBehaviourEv
FNDA:1,_ZN11CCTCManager13CEDROOMMemory9SetMemoryEjP14CEDROOMMessagePbjPN12CEDROOMQueue10CQueueNodeES3_
FNDA:0,_ZN11CCTCManager33EDROOMIRQ18HandlerTopHalfFunctionEv
FNDA:0,_ZN11CCTCManager18EDROOMIRQ18HandlerEv
FNDA:0,_ZN11CCTCManager22EDROOMIRQ18IdleHandlerEv
FNDA:1,_ZN11CCTCManager25EDROOMIRQ18BottomHalfTaskEv
FNF:9
FNH:5
DA:25,0
DA:27,0
DA:38,0
DA:39,0
DA:41,0
DA:47,0
DA:49,0
DA:51,0
DA:57,0
DA:59,0
DA:65,1
DA:67,1
DA:72,16
DA:74,15
DA:76,15
DA:80,15
DA:84,15
DA:88,15
DA:90,15
DA:93,15
DA:95,15
DA:97,15
DA:100,15
DA:102,0
DA:104,15
DA:106,0
DA:126,1
DA:130,1
DA:137,1
DA:141,1
DA:147,1
DA:158,0
DA:162,0
DA:169,1
DA:175,1
DA:177,1
DA:190,1
DA:193,1
DA:194,1
DA:199,0
DA:200,0
DA:223,1
DA:231,1
DA:232,1
DA:235,1
LF:45
LH:29
end_of_record
TN:
SF:/home/atcsol/eclipse-workspace_FIE/asw_pus_freertos_prac9/asw/components/uah_asw/include/public/uah_asw_iface_v1.h
FN:220,221,_ZN7UAH_ASW16EDROOM_CTX_Top_016EDROOMNewMessageEv
FNDA:100,_ZN7UAH_ASW16EDROOM_CTX_Top_016EDROOMNewMessageEv
FNF:1
FNH:1
DA:220,100
DA:221,100
LF:2
LH:2
end_of_record
TN:
SF:/home/atcsol/eclipse-workspace_FIE/asw_pus_freertos_prac9/asw/components/uah_asw/src/UAH_ASWB.cpp
FN:128,133,_ZN7UAH_ASW16EDROOM_SUB_Top_0C2ERS_
FN:13,22,_ZN7UAH_ASW16EDROOM_CTX_Top_0C2ERS_R7Pr_Time
FN:137,194,_ZN7UAH_ASW16EDROOM_SUB_Top_015EDROOMBehaviourEv
FN:200,205,_ZN7UAH_ASW16EDROOM_SUB_Top_010EDROOMInitEv
FN:217,227,_ZN7UAH_ASW16EDROOM_SUB_Top_014EDROOMIArrivalEv
FN:239,279,_ZN7UAH_ASW16EDROOM_SUB_Top_018EDROOMReadyArrivalEv
FN:24,33,_ZN7UAH_ASW16EDROOM_CTX_Top_0C2ERS0_
FN:37,57,_ZN7UAH_ASW16EDROOM_CTX_Top_024EDROOMSearchContextTransER14TEDROOMTransId
FN:61,80,_ZN7UAH_ASW16EDROOM_CTX_Top_08FEmuInitEv
FN:84,91,_ZN7UAH_ASW16EDROOM_CTX_Top_014FEmuRxTimeCodeEv
FN:95,110,_ZN7UAH_ASW16EDROOM_CTX_Top_010FProgTimerEv
FNDA:1,_ZN7UAH_ASW16EDROOM_SUB_Top_0C2ERS_
FNDA:1,_ZN7UAH_ASW16EDROOM_CTX_Top_0C2ERS_R7Pr_Time
FNDA:1,_ZN7UAH_ASW16EDROOM_SUB_Top_015EDROOMBehaviourEv
FNDA:1,_ZN7UAH_ASW16EDROOM_SUB_Top_010EDROOMInitEv
FNDA:1,_ZN7UAH_ASW16EDROOM_SUB_Top_014EDROOMIArrivalEv
FNDA:100,_ZN7UAH_ASW16EDROOM_SUB_Top_018EDROOMReadyArrivalEv
FNDA:0,_ZN7UAH_ASW16EDROOM_CTX_Top_0C2ERS0_
FNDA:0,_ZN7UAH_ASW16EDROOM_CTX_Top_024EDROOMSearchContextTransER14TEDROOMTransId
FNDA:1,_ZN7UAH_ASW16EDROOM_CTX_Top_08FEmuInitEv
FNDA:100,_ZN7UAH_ASW16EDROOM_CTX_Top_014FEmuRxTimeCodeEv
FNDA:100,_ZN7UAH_ASW16EDROOM_CTX_Top_010FProgTimerEv
FNF:11
FNH:9
DA:13,1
DA:14,1
DA:16,1
DA:17,1
DA:18,1
DA:19,1
DA:20,1
DA:22,1
DA:24,0
DA:26,0
DA:27,0
DA:28,0
DA:29,0
DA:30,0
DA:33,0
DA:37,0
DA:41,0
DA:43,0
DA:46,0
DA:48,0
DA:49,0
DA:50,0
DA:51,0
DA:55,0
DA:61,1
DA:65,1
DA:70,1
DA:72,1
DA:74,1
DA:75,1
DA:77,1
DA:79,1
DA:80,1
DA:84,100
DA:89,100
DA:91,99
DA:95,100
DA:99,100
DA:105,100
DA:107,100
DA:109,100
DA:110,100
DA:128,1
DA:130,1
DA:133,1
DA:137,1
DA:144,1
DA:151,101
DA:155,1
DA:157,1
DA:159,1
DA:160,1
DA:162,100
DA:164,100
DA:166,99
DA:167,99
DA:171,100
DA:175,0
DA:177,0
DA:178,0
DA:181,100
DA:183,100
DA:185,100
DA:186,100
DA:190,100
DA:192,100
DA:194,0
DA:200,1
DA:203,1
DA:205,1
DA:217,1
DA:223,1
DA:224,1
DA:225,1
DA:239,100
DA:244,100
DA:249,100
DA:251,100
DA:254,100
DA:256,100
DA:260,100
DA:261,100
DA:262,100
DA:265,100
DA:269,100
DA:271,0
DA:275,100
DA:277,100
LF:88
LH:67
end_of_record
TN:
SF:/home/atcsol/eclipse-workspace_FIE/asw_pus_freertos_prac9/asw/components/uah_asw/src/UAH_ASWS.cpp
FN:114,128,_ZN7UAH_ASW13CEDROOMMemory9SetMemoryEjP14CEDROOMMessagePbjPN12CEDROOMQueue10CQueueNodeES3_
FN:13,38,_ZN7UAH_ASWC2Ejj15TEDROOMPriorityjPNS_13CEDROOMMemoryE
FN:49,54,_ZN7UAH_ASW12EDROOMConfigEv
FN:60,73,_ZN7UAH_ASW11EDROOMStartEv
FN:85,91,_ZN7UAH_ASW15EDROOMBehaviourEv
FNDA:1,_ZN7UAH_ASW13CEDROOMMemory9SetMemoryEjP14CEDROOMMessagePbjPN12CEDROOMQueue10CQueueNodeES3_
FNDA:1,_ZN7UAH_ASWC2Ejj15TEDROOMPriorityjPNS_13CEDROOMMemoryE
FNDA:0,_ZN7UAH_ASW12EDROOMConfigEv
FNDA:1,_ZN7UAH_ASW11EDROOMStartEv
FNDA:1,_ZN7UAH_ASW15EDROOMBehaviourEv
FNF:5
FNH:4
DA:13,1
DA:17,1
DA:24,1
DA:28,1
DA:32,2
DA:38,1
DA:49,0
DA:53,0
DA:60,1
DA:66,1
DA:70,1
DA:72,1
DA:85,1
DA:88,1
DA:89,1
DA:91,0
DA:114,1
DA:122,1
DA:123,1
DA:125,1
DA:128,1
LF:21
LH:18
end_of_record
TN:
SF:/home/atcsol/eclipse-workspace_FIE/asw_pus_freertos_prac9/asw/dataclasses/CDEvAction/include/public/cdevaction.h
FN:18,21,_ZN10CDEvAction18GetActionTCHandlerEv
FN:35,38,_ZN10CDEvActionC2Ev
FNDA:1,_ZN10CDEvAction18GetActionTCHandlerEv
FNDA:11,_ZN10CDEvActionC2Ev
FNF:2
FNH:2
DA:18,1
DA:20,1
DA:35,11
DA:36,11
DA:37,11
DA:38,11
LF:6
LH:6
end_of_record
TN:
SF:/home/atcsol/eclipse-workspace_FIE/asw_pus_freertos_prac9/asw/dataclasses/CDEvAction/src/cdevaction.cpp
FN:11,21,_ZN10CDEvAction24ExtractEvActionFromQueueEv
FNDA:1,_ZN10CDEvAction24ExtractEvActionFromQueueEv
FNF:1
FNH:1
DA:11,1
DA:13,1
DA:15,1
DA:17,1
DA:21,1
LF:5
LH:5
end_of_record
TN:
SF:/home/atcsol/eclipse-workspace_FIE/asw_pus_freertos_prac9/asw/dataclasses/CDTCAcceptReport/include/public/cdtcacceptreport.h
FN:16,18,_ZN16CDTCAcceptReportC2Ev
FN:21,24,_ZN16CDTCAcceptReport10IsAcceptedEv
FNDA:16,_ZN16CDTCAcceptReportC2Ev
FNDA:15,_ZN16CDTCAcceptReport10IsAcceptedEv
FNF:2
FNH:2
DA:16,16
DA:17,16
DA:18,16
DA:21,15
DA:22,15
LF:5
LH:5
end_of_record
TN:
SF:/home/atcsol/eclipse-workspace_FIE/asw_pus_freertos_prac9/asw/dataclasses/CDTCExecCtrl/include/public/cdtcexecctrl.h
FN:26,26,_ZN12CDTCExecCtrl10IsRebootTCEv
FN:43,43,_ZN12CDTCExecCtrl11IsHK_FDIRTCEv
FN:52,52,_ZN12CDTCExecCtrl7IsBKGTCEv
FN:62,62,_ZN12CDTCExecCtrl9IsDroneTCEv
FNDA:15,_ZN12CDTCExecCtrl10IsRebootTCEv
FNDA:14,_ZN12CDTCExecCtrl11IsHK_FDIRTCEv
FNDA:7,_ZN12CDTCExecCtrl7IsBKGTCEv
FNDA:3,_ZN12CDTCExecCtrl9IsDroneTCEv
FNF:4
FNH:4
DA:26,15
DA:43,14
DA:52,7
DA:62,3
LF:4
LH:4
end_of_record
TN:
SF:/home/atcsol/eclipse-workspace_FIE/asw_pus_freertos_prac9/asw/dataclasses/CDTCHandler/src/cdtchandler.cpp
FN:100,126,_ZN11CDTCHandler10ExecPrioTCEv
FN:128,154,_ZN11CDTCHandler12ExecRebootTCEv
FN:156,194,_ZN11CDTCHandler13ExecHK_FDIRTCEv
FN:16,21,_ZN11CDTCHandlerC2Ev
FN:196,223,_ZN11CDTCHandler9ExecBKGTCEv
FN:225,251,_ZN11CDTCHandler11ExecDroneTCEv
FN:23,27,_ZN11CDTCHandler19BuildFromDescriptorER17CDTCMemDescriptor
FN:29,35,_ZN11CDTCHandler13DoAcceptationEv
FN:37,42,_ZN11CDTCHandler14MngTCRejectionER16CDTCAcceptReport
FN:45,49,_ZN11CDTCHandler16MngTCAcceptationEv
FN:55,95,_ZN11CDTCHandler11GetExecCtrlEv
FNDA:3,_ZN11CDTCHandler10ExecPrioTCEv
FNDA:1,_ZN11CDTCHandler12ExecRebootTCEv
FNDA:7,_ZN11CDTCHandler13ExecHK_FDIRTCEv
FNDA:23,_ZN11CDTCHandlerC2Ev
FNDA:4,_ZN11CDTCHandler9ExecBKGTCEv
FNDA:0,_ZN11CDTCHandler11ExecDroneTCEv
FNDA:15,_ZN11CDTCHandler19BuildFromDescriptorER17CDTCMemDescriptor
FNDA:15,_ZN11CDTCHandler13DoAcceptationEv
FNDA:1,_ZN11CDTCHandler14MngTCRejectionER16CDTCAcceptReport
FNDA:14,_ZN11CDTCHandler16MngTCAcceptationEv
FNDA:15,_ZN11CDTCHandler11GetExecCtrlEv
FNF:11
FNH:10
DA:16,23
DA:18,23
DA:19,23
DA:21,23
DA:23,15
DA:25,15
DA:27,15
DA:29,15
DA:31,15
DA:32,15
DA:34,15
DA:37,1
DA:39,1
DA:41,1
DA:42,1
DA:45,14
DA:47,14
DA:49,14
DA:55,15
DA:58,15
DA:61,15
DA:63,7
DA:68,7
DA:69,7
DA:71,3
DA:73,3
DA:74,3
DA:76,4
DA:77,4
DA:78,4
DA:79,1
DA:80,1
DA:81,1
DA:82,0
DA:83,0
DA:85,0
DA:87,0
DA:89,0
DA:90,0
DA:94,15
DA:100,3
DA:103,3
DA:105,3
DA:108,3
DA:110,3
DA:112,2
DA:113,2
DA:114,2
DA:116,1
DA:118,1
DA:119,1
DA:123,3
DA:126,3
DA:128,1
DA:131,1
DA:133,1
DA:136,1
DA:138,1
DA:140,1
DA:141,1
DA:142,1
DA:144,0
DA:146,0
DA:147,0
DA:151,1
DA:154,1
DA:156,7
DA:159,7
DA:161,7
DA:164,7
DA:166,7
DA:168,3
DA:169,3
DA:170,3
DA:174,0
DA:175,0
DA:176,0
DA:177,2
DA:178,2
DA:179,2
DA:180,2
DA:181,2
DA:182,2
DA:184,0
DA:186,0
DA:187,0
DA:191,7
DA:194,7
DA:196,4
DA:199,4
DA:201,4
DA:204,4
DA:206,4
DA:208,4
DA:209,4
DA:210,4
DA:213,0
DA:215,0
DA:216,0
DA:220,4
DA:223,4
DA:225,0
DA:228,0
DA:230,0
DA:233,0
DA:235,0
DA:237,0
DA:238,0
DA:239,0
DA:241,0
DA:243,0
DA:244,0
DA:248,0
DA:251,0
LF:114
LH:83
end_of_record
TN:
SF:/home/atcsol/eclipse-workspace_FIE/asw_pus_freertos_prac9/asw/dataclasses/CDTCMemDescriptor/src/cdtcmemdescriptor.cpp
FN:12,16,_ZN17CDTCMemDescriptor9HandleIRQEv
FNDA:0,_ZN17CDTCMemDescriptor9HandleIRQEv
FNF:1
FNH:0
DA:12,0
DA:14,0
LF:2
LH:0
end_of_record
TN:
SF:/home/atcsol/eclipse-workspace_FIE/asw_pus_freertos_prac9/asw/edroom_glue/include/edroom_glue/edroomdeployment.h
FN:164,164,_ZN23CEDROOMSystemDeployment14GetComp1MemoryEv
FN:165,165,_ZN23CEDROOMSystemDeployment14GetComp2MemoryEv
FN:166,166,_ZN23CEDROOMSystemDeployment14GetComp3MemoryEv
FN:167,167,_ZN23CEDROOMSystemDeployment14GetComp4MemoryEv
FN:168,168,_ZN23CEDROOMSystemDeployment14GetComp5MemoryEv
FNDA:1,_ZN23CEDROOMSystemDeployment14GetComp1MemoryEv
FNDA:1,_ZN23CEDROOMSystemDeployment14GetComp2MemoryEv
FNDA:1,_ZN23CEDROOMSystemDeployment14GetComp3MemoryEv
FNDA:1,_ZN23CEDROOMSystemDeployment14GetComp4MemoryEv
FNDA:1,_ZN23CEDROOMSystemDeployment14GetComp5MemoryEv
FNF:5
FNH:5
DA:164,1
DA:165,1
DA:166,1
DA:167,1
DA:168,1
LF:5
LH:5
end_of_record
TN:
SF:/home/atcsol/eclipse-workspace_FIE/asw_pus_freertos_prac9/asw/edroom_glue/src/edroomdeployment.cpp
FN:105,118,_ZN20CEDROOMSystemCommSAP50C2TCManager_PBKGExecCtrl__C4BKGTCExec_PBKGExecCtrlEi
FN:11,31,_Z8MainWaitR7UAH_ASWR11CCTCManagerR12CCHK_FDIRMngR11CCBKGTCExecR10CCDroneMng
FN:120,131,_ZN20CEDROOMSystemCommSAP50C4BKGTCExec_PBKGExecCtrl__C2TCManager_PBKGExecCtrlEi
FN:133,146,_ZN20CEDROOMSystemCommSAP51C3HK_FDIRMng_PHK_FDIRCtrl__C2TCManager_PHK_FDIRCtrlEi
FN:148,161,_ZN20CEDROOMSystemCommSAP51C2TCManager_PHK_FDIRCtrl__C3HK_FDIRMng_PHK_FDIRCtrlEi
FN:168,190,_ZN20CEDROOMSystemCommSAP18RegisterInterfacesEv
FN:196,210,_ZN20CEDROOMSystemCommSAP19SetLocalConnectionsEv
FN:216,218,_ZN20CEDROOMSystemCommSAP20SetRemoteConnectionsEv
FN:223,228,_ZN20CEDROOMSystemCommSAP14SetConnectionsEv
FN:233,239,_ZN23CEDROOMSystemDeploymentC2Ev
FN:244,265,_ZN23CEDROOMSystemDeployment6ConfigEP7UAH_ASWP11CCTCManagerP12CCHK_FDIRMngP11CCBKGTCExecP10CCDroneMng
FN:270,277,_ZN23CEDROOMSystemDeployment15StartComponentsEv
FN:282,305,_ZN23CEDROOMSystemDeployment5StartEv
FN:316,325,_ZN23CEDROOMSystemDeployment9main_taskEv
FN:36,48,_ZN19CEDROOMSystemMemory9SetMemoryEv
FN:53,63,_ZN20CEDROOMSystemCommSAP13SetComponentsEP7UAH_ASWP11CCTCManagerP12CCHK_FDIRMngP11CCBKGTCExecP10CCDroneMng
FN:73,88,_ZN20CEDROOMSystemCommSAP51C2TCManager_PDroneMngCtrl__C5DroneMng_PDroneMngCtrlEi
FN:90,103,_ZN20CEDROOMSystemCommSAP51C5DroneMng_PDroneMngCtrl__C2TCManager_PDroneMngCtrlEi
FNDA:4,_ZN20CEDROOMSystemCommSAP50C2TCManager_PBKGExecCtrl__C4BKGTCExec_PBKGExecCtrlEi
FNDA:1,_Z8MainWaitR7UAH_ASWR11CCTCManagerR12CCHK_FDIRMngR11CCBKGTCExecR10CCDroneMng
FNDA:0,_ZN20CEDROOMSystemCommSAP50C4BKGTCExec_PBKGExecCtrl__C2TCManager_PBKGExecCtrlEi
FNDA:1,_ZN20CEDROOMSystemCommSAP51C3HK_FDIRMng_PHK_FDIRCtrl__C2TCManager_PHK_FDIRCtrlEi
FNDA:7,_ZN20CEDROOMSystemCommSAP51C2TCManager_PHK_FDIRCtrl__C3HK_FDIRMng_PHK_FDIRCtrlEi
FNDA:1,_ZN20CEDROOMSystemCommSAP18RegisterInterfacesEv
FNDA:1,_ZN20CEDROOMSystemCommSAP19SetLocalConnectionsEv
FNDA:1,_ZN20CEDROOMSystemCommSAP20SetRemoteConnectionsEv
FNDA:1,_ZN20CEDROOMSystemCommSAP14SetConnectionsEv
FNDA:1,_ZN23CEDROOMSystemDeploymentC2Ev
FNDA:1,_ZN23CEDROOMSystemDeployment6ConfigEP7UAH_ASWP11CCTCManagerP12CCHK_FDIRMngP11CCBKGTCExecP10CCDroneMng
FNDA:1,_ZN23CEDROOMSystemDeployment15StartComponentsEv
FNDA:1,_ZN23CEDROOMSystemDeployment5StartEv
FNDA:1,_ZN23CEDROOMSystemDeployment9main_taskEv
FNDA:1,_ZN19CEDROOMSystemMemory9SetMemoryEv
FNDA:1,_ZN20CEDROOMSystemCommSAP13SetComponentsEP7UAH_ASWP11CCTCManagerP12CCHK_FDIRMngP11CCBKGTCExecP10CCDroneMng
FNDA:1,_ZN20CEDROOMSystemCommSAP51C2TCManager_PDroneMngCtrl__C5DroneMng_PDroneMngCtrlEi
FNDA:1,_ZN20CEDROOMSystemCommSAP51C5DroneMng_PDroneMngCtrl__C2TCManager_PDroneMngCtrlEi
FNF:18
FNH:17
DA:11,1
DA:17,1
DA:30,34
DA:36,1
DA:38,1
DA:39,1
DA:40,1
DA:41,1
DA:42,1
DA:43,1
DA:44,1
DA:45,1
DA:46,1
DA:47,1
DA:48,1
DA:53,1
DA:58,1
DA:59,1
DA:60,1
DA:61,1
DA:62,1
DA:63,1
DA:73,1
DA:77,1
DA:79,1
DA:81,0
DA:83,0
DA:86,1
DA:90,1
DA:94,1
DA:96,1
DA:98,0
DA:101,1
DA:105,4
DA:109,4
DA:111,4
DA:113,0
DA:116,4
DA:120,0
DA:126,0
DA:129,0
DA:133,1
DA:137,1
DA:139,1
DA:141,0
DA:144,1
DA:148,7
DA:152,7
DA:154,7
DA:156,0
DA:159,7
DA:168,1
DA:171,1
DA:174,1
DA:175,1
DA:176,1
DA:177,1
DA:180,1
DA:181,1
DA:184,1
DA:187,1
DA:188,1
DA:190,1
DA:196,1
DA:198,1
DA:202,1
DA:206,1
DA:210,1
DA:216,1
DA:218,1
DA:223,1
DA:225,1
DA:226,1
DA:228,1
DA:233,1
DA:237,1
DA:239,1
DA:244,1
DA:250,1
DA:251,1
DA:252,1
DA:253,1
DA:254,1
DA:256,1
DA:262,1
DA:263,1
DA:265,1
DA:270,1
DA:271,1
DA:272,1
DA:273,1
DA:274,1
DA:275,1
DA:277,1
DA:282,1
DA:286,1
DA:288,1
DA:305,0
DA:316,1
DA:318,1
DA:319,1
DA:320,1
DA:321,1
DA:322,1
DA:323,1
DA:325,0
LF:106
LH:95
end_of_record
TN:
SF:/home/atcsol/eclipse-workspace_FIE/asw_pus_freertos_prac9/llsw/device_drv/src/emu_device_drv.c
FN:14,26,device_drv_on_off
FN:28,39,device_drv_is_on_off_address_valid
FNDA:0,device_drv_on_off
FNDA:0,device_drv_is_on_off_address_valid
FNF:2
FNH:0
DA:14,0
DA:16,0
DA:18,0
DA:19,0
DA:20,0
DA:21,0
DA:23,0
DA:25,0
DA:28,0
DA:30,0
DA:32,0
DA:33,0
DA:34,0
DA:35,0
DA:37,0
LF:15
LH:0
end_of_record
TN:
SF:/home/atcsol/eclipse-workspace_FIE/asw_pus_freertos_prac9/llsw/emu_adc_drv/src/emu_adc_drv.c
FN:62,69,get_noise
FN:71,85,sample_adc_channel
FN:88,96,sample_sys_data_pool_params
FN:98,120,init_adc_channel
FNDA:505,get_noise
FNDA:505,sample_adc_channel
FNDA:100,sample_sys_data_pool_params
FNDA:1,init_adc_channel
FNF:4
FNH:4
DA:62,505
DA:65,505
DA:68,505
DA:71,505
DA:73,505
DA:75,505
DA:77,505
DA:79,505
DA:83,505
DA:88,100
DA:90,600
DA:92,500
DA:96,100
DA:98,1
DA:100,6
DA:102,5
DA:106,8
DA:108,7
DA:112,1
DA:113,19
DA:115,18
DA:120,1
LF:22
LH:22
end_of_record
TN:
SF:/home/atcsol/eclipse-workspace_FIE/asw_pus_freertos_prac9/llsw/emu_display_drv/src/emu_display_drv.c
FN:13,19,display_drv_show_abort_msg
FN:21,25,display_drv_show_X_Y_Z
FNDA:0,display_drv_show_abort_msg
FNDA:1,display_drv_show_X_Y_Z
FNF:2
FNH:1
DA:13,0
DA:15,0
DA:16,0
DA:17,0
DA:19,0
DA:21,1
DA:25,1
LF:7
LH:2
end_of_record
TN:
SF:/home/atcsol/eclipse-workspace_FIE/asw_pus_freertos_prac9/llsw/emu_gss/include/emu_gss/emu_gss_tc_program.h
FN:48,48,_ZN16EmuGSS_TCProgram7GetTypeEv
FN:49,49,_ZN16EmuGSS_TCProgram10GetSubtypeEv
FN:50,50,_ZN16EmuGSS_TCProgram8GetBriefEv
FNDA:15,_ZN16EmuGSS_TCProgram7GetTypeEv
FNDA:15,_ZN16EmuGSS_TCProgram10GetSubtypeEv
FNDA:15,_ZN16EmuGSS_TCProgram8GetBriefEv
FNF:3
FNH:3
DA:48,15
DA:49,15
DA:50,15
LF:3
LH:3
end_of_record
TN:
SF:/home/atcsol/eclipse-workspace_FIE/asw_pus_freertos_prac9/llsw/emu_gss/src/emu_gss.cpp
FN:101,109,_Z17EmuGSS_PassSecondv
FN:111,115,_Z18EmuGSS_RxCurrentTCP17CDTCMemDescriptor
FN:117,153,_Z24EmuGSS_SendProgrammedTCsv
FN:38,93,_Z13EmuGSS_ShowTMPK17tm_mem_descriptor
FN:95,99,_Z22EmuGSS_PrintCurrentOBTv
FNDA:100,_Z17EmuGSS_PassSecondv
FNDA:0,_Z18EmuGSS_RxCurrentTCP17CDTCMemDescriptor
FNDA:100,_Z24EmuGSS_SendProgrammedTCsv
FNDA:57,_Z13EmuGSS_ShowTMPK17tm_mem_descriptor
FNDA:101,_Z22EmuGSS_PrintCurrentOBTv
FNF:5
FNH:4
DA:38,57
DA:42,57
DA:43,57
DA:45,57
DA:47,57
DA:50,43
DA:52,43
DA:53,43
DA:57,6
DA:58,6
DA:59,6
DA:63,0
DA:64,0
DA:65,0
DA:69,3
DA:70,3
DA:71,3
DA:75,2
DA:76,2
DA:77,2
DA:81,1
DA:82,1
DA:83,1
DA:87,2
DA:88,2
DA:91,57
DA:93,57
DA:95,101
DA:97,101
DA:99,101
DA:101,100
DA:105,100
DA:107,100
DA:109,99
DA:111,0
DA:115,0
DA:117,100
DA:119,100
DA:121,100
DA:122,115
DA:124,15
DA:125,15
DA:126,15
DA:128,15
DA:129,15
DA:134,15
DA:136,15
DA:138,15
DA:140,15
DA:142,15
DA:147,100
DA:149,15
DA:153,99
LF:53
LH:48
end_of_record
TN:
SF:/home/atcsol/eclipse-workspace_FIE/asw_pus_freertos_prac9/llsw/emu_gss/src/emu_gss_pus_service01.cpp
FN:105,214,_ZN17GSSServ1TMHandler10ShowTM_1_4Ev
FN:216,275,_ZN17GSSServ1TMHandler10ShowTM_1_8Ev
FN:33,38,_Z18EmuGSS_ShowServ1TMPK17tm_mem_descriptor
FN:40,43,_ZN17GSSServ1TMHandlerC2EPKh
FN:45,64,_ZN17GSSServ1TMHandler6ShowTMEv
FN:65,103,_ZN17GSSServ1TMHandler10ShowTM_1_2Ev
FNDA:1,_ZN17GSSServ1TMHandler10ShowTM_1_4Ev
FNDA:0,_ZN17GSSServ1TMHandler10ShowTM_1_8Ev
FNDA:43,_Z18EmuGSS_ShowServ1TMPK17tm_mem_descriptor
FNDA:43,_ZN17GSSServ1TMHandlerC2EPKh
FNDA:43,_ZN17GSSServ1TMHandler6ShowTMEv
FNDA:1,_ZN17GSSServ1TMHandler10ShowTM_1_2Ev
FNF:6
FNH:5
DA:33,43
DA:35,43
DA:36,43
DA:38,43
DA:40,43
DA:41,43
DA:43,43
DA:45,43
DA:48,43
DA:51,43
DA:53,43
DA:54,1
DA:55,1
DA:56,1
DA:57,1
DA:58,1
DA:59,1
DA:60,0
DA:61,0
DA:62,0
DA:64,43
DA:65,1
DA:67,1
DA:68,1
DA:69,0
DA:71,0
DA:72,0
DA:74,0
DA:76,0
DA:77,0
DA:79,0
DA:81,0
DA:82,0
DA:84,0
DA:86,0
DA:88,0
DA:90,1
DA:92,1
DA:94,1
DA:96,0
DA:97,0
DA:99,0
DA:103,1
DA:105,1
DA:107,1
DA:108,1
DA:109,0
DA:111,0
DA:112,0
DA:114,0
DA:116,0
DA:117,0
DA:119,0
DA:121,0
DA:123,0
DA:125,0
DA:127,0
DA:129,0
DA:130,0
DA:132,0
DA:133,0
DA:135,0
DA:137,0
DA:138,0
DA:140,0
DA:142,0
DA:144,0
DA:146,0
DA:148,0
DA:150,0
DA:151,0
DA:153,0
DA:155,0
DA:157,0
DA:159,0
DA:161,0
DA:162,0
DA:164,0
DA:166,0
DA:168,0
DA:170,0
DA:172,0
DA:174,0
DA:176,0
DA:178,0
DA:180,0
DA:182,0
DA:184,0
DA:186,0
DA:188,0
DA:189,0
DA:191,0
DA:193,0
DA:194,0
DA:196,0
DA:198,0
DA:199,0
DA:200,0
DA:202,0
DA:203,0
DA:205,1
DA:207,1
DA:208,1
DA:209,0
DA:210,0
DA:212,0
DA:214,1
DA:216,0
DA:218,0
DA:219,0
DA:221,0
DA:223,0
DA:224,0
DA:226,0
DA:228,0
DA:229,0
DA:231,0
DA:233,0
DA:234,0
DA:236,0
DA:238,0
DA:240,0
DA:242,0
DA:244,0
DA:245,0
DA:247,0
DA:249,0
DA:251,0
DA:253,0
DA:255,0
DA:257,0
DA:258,0
DA:260,0
DA:262,0
DA:263,0
DA:265,0
DA:267,0
DA:269,0
DA:270,0
DA:272,0
DA:275,0
LF:141
LH:32
end_of_record
TN:
SF:/home/atcsol/eclipse-workspace_FIE/asw_pus_freertos_prac9/llsw/emu_gss/src/emu_gss_pus_service02.cpp
FN:34,45,_ZN19EmuGSS_TCProgram2_1C2EjPKc20DeviceCommandOnOff_t
FN:48,61,_ZN19EmuGSS_TCProgram2_1C2E20DeviceCommandOnOff_t
FN:63,70,_ZN19EmuGSS_TCProgram2_114BuildTCAppDataER17tc_mem_descriptor
FN:73,81,_ZN30EmuGSS_TCProgram2_1_BadAddressC2EjPKcj
FN:83,90,_ZN30EmuGSS_TCProgram2_1_BadAddress14BuildTCAppDataER17tc_mem_descriptor
FNDA:0,_ZN19EmuGSS_TCProgram2_1C2EjPKc20DeviceCommandOnOff_t
FNDA:1,_ZN19EmuGSS_TCProgram2_1C2E20DeviceCommandOnOff_t
FNDA:1,_ZN19EmuGSS_TCProgram2_114BuildTCAppDataER17tc_mem_descriptor
FNDA:0,_ZN30EmuGSS_TCProgram2_1_BadAddressC2EjPKcj
FNDA:0,_ZN30EmuGSS_TCProgram2_1_BadAddress14BuildTCAppDataER17tc_mem_descriptor
FNF:5
FNH:2
DA:34,0
DA:35,0
DA:37,0
DA:39,0
DA:40,0
DA:42,0
DA:44,0
DA:45,0
DA:48,1
DA:50,1
DA:52,1
DA:54,1
DA:55,1
DA:57,0
DA:61,1
DA:63,1
DA:66,1
DA:68,1
DA:70,1
DA:73,0
DA:74,0
DA:76,0
DA:78,0
DA:80,0
DA:81,0
DA:83,0
DA:86,0
DA:88,0
DA:90,0
LF:29
LH:10
end_of_record
TN:
SF:/home/atcsol/eclipse-workspace_FIE/asw_pus_freertos_prac9/llsw/emu_gss/src/emu_gss_pus_service03.cpp
FN:100,103,_ZN17GSSServ3TMHandlerC2EPKh
FN:105,113,_ZN17GSSServ3TMHandler6ShowTMEv
FN:115,123,_ZN17GSSServ3TMHandler11ShowTM_3_25Ev
FN:127,187,_ZN17GSSServ3TMHandler15ShowTM_3_25_SIDEt
FN:41,48,_ZN19EmuGSS_TCProgram3_5C2EjPKct
FN:50,55,_ZN19EmuGSS_TCProgram3_514BuildTCAppDataER17tc_mem_descriptor
FN:57,64,_ZN19EmuGSS_TCProgram3_6C2EjPKct
FN:66,71,_ZN19EmuGSS_TCProgram3_614BuildTCAppDataER17tc_mem_descriptor
FN:73,82,_ZN20EmuGSS_TCProgram3_31C2EjPKcth
FN:84,90,_ZN20EmuGSS_TCProgram3_3114BuildTCAppDataER17tc_mem_descriptor
FN:93,98,_Z18EmuGSS_ShowServ3TMPK17tm_mem_descriptor
FNDA:6,_ZN17GSSServ3TMHandlerC2EPKh
FNDA:6,_ZN17GSSServ3TMHandler6ShowTMEv
FNDA:6,_ZN17GSSServ3TMHandler11ShowTM_3_25Ev
FNDA:6,_ZN17GSSServ3TMHandler15ShowTM_3_25_SIDEt
FNDA:1,_ZN19EmuGSS_TCProgram3_5C2EjPKct
FNDA:1,_ZN19EmuGSS_TCProgram3_514BuildTCAppDataER17tc_mem_descriptor
FNDA:1,_ZN19EmuGSS_TCProgram3_6C2EjPKct
FNDA:1,_ZN19EmuGSS_TCProgram3_614BuildTCAppDataER17tc_mem_descriptor
FNDA:1,_ZN20EmuGSS_TCProgram3_31C2EjPKcth
FNDA:1,_ZN20EmuGSS_TCProgram3_3114BuildTCAppDataER17tc_mem_descriptor
FNDA:6,_Z18EmuGSS_ShowServ3TMPK17tm_mem_descriptor
FNF:11
FNH:11
DA:41,1
DA:42,1
DA:44,1
DA:46,1
DA:47,1
DA:48,1
DA:50,1
DA:52,1
DA:53,1
DA:55,1
DA:57,1
DA:58,1
DA:60,1
DA:62,1
DA:63,1
DA:64,1
DA:66,1
DA:68,1
DA:69,1
DA:71,1
DA:73,1
DA:74,1
DA:76,1
DA:78,1
DA:79,1
DA:81,1
DA:82,1
DA:84,1
DA:86,1
DA:87,1
DA:88,1
DA:90,1
DA:93,6
DA:95,6
DA:96,6
DA:98,6
DA:100,6
DA:101,6
DA:103,6
DA:105,6
DA:107,6
DA:108,6
DA:109,6
DA:110,6
DA:113,6
DA:115,6
DA:117,6
DA:119,6
DA:121,6
DA:123,6
DA:127,6
DA:130,6
DA:132,6
DA:134,6
DA:136,18
DA:140,12
DA:142,12
DA:144,12
DA:145,12
DA:147,0
DA:148,0
DA:150,0
DA:152,12
DA:153,12
DA:155,12
DA:156,0
DA:157,0
DA:159,0
DA:161,0
DA:162,0
DA:166,12
DA:168,12
DA:169,6
DA:170,6
DA:172,6
DA:173,6
DA:174,6
DA:175,6
DA:179,0
DA:180,0
DA:187,6
LF:81
LH:71
end_of_record
TN:
SF:/home/atcsol/eclipse-workspace_FIE/asw_pus_freertos_prac9/llsw/emu_gss/src/emu_gss_pus_service04.cpp
FN:102,121,_ZN17GSSServ4TMHandler10ShowTM_4_2Ev
FN:123,187,_ZN17GSSServ4TMHandler19ShowTM_4_2_PIDValueEv
FN:37,41,_ZN19EmuGSS_TCProgram4_1C2EjPKc
FN:43,45,_ZN19EmuGSS_TCProgram4_114BuildTCAppDataER17tc_mem_descriptor
FN:47,54,_ZN19EmuGSS_TCProgram4_6C2EjPKct
FN:56,61,_ZN19EmuGSS_TCProgram4_614BuildTCAppDataER17tc_mem_descriptor
FN:63,70,_ZN19EmuGSS_TCProgram4_7C2EjPKct
FN:72,77,_ZN19EmuGSS_TCProgram4_714BuildTCAppDataER17tc_mem_descriptor
FN:80,85,_Z18EmuGSS_ShowServ4TMPK17tm_mem_descriptor
FN:87,90,_ZN17GSSServ4TMHandlerC2EPKh
FN:92,100,_ZN17GSSServ4TMHandler6ShowTMEv
FNDA:0,_ZN17GSSServ4TMHandler10ShowTM_4_2Ev
FNDA:0,_ZN17GSSServ4TMHandler19ShowTM_4_2_PIDValueEv
FNDA:0,_ZN19EmuGSS_TCProgram4_1C2EjPKc
FNDA:0,_ZN19EmuGSS_TCProgram4_114BuildTCAppDataER17tc_mem_descriptor
FNDA:0,_ZN19EmuGSS_TCProgram4_6C2EjPKct
FNDA:0,_ZN19EmuGSS_TCProgram4_614BuildTCAppDataER17tc_mem_descriptor
FNDA:0,_ZN19EmuGSS_TCProgram4_7C2EjPKct
FNDA:0,_ZN19EmuGSS_TCProgram4_714BuildTCAppDataER17tc_mem_descriptor
FNDA:0,_Z18EmuGSS_ShowServ4TMPK17tm_mem_descriptor
FNDA:0,_ZN17GSSServ4TMHandlerC2EPKh
FNDA:0,_ZN17GSSServ4TMHandler6ShowTMEv
FNF:11
FNH:0
DA:37,0
DA:38,0
DA:40,0
DA:41,0
DA:43,0
DA:45,0
DA:47,0
DA:48,0
DA:50,0
DA:52,0
DA:53,0
DA:54,0
DA:56,0
DA:58,0
DA:59,0
DA:61,0
DA:63,0
DA:64,0
DA:66,0
DA:68,0
DA:69,0
DA:70,0
DA:72,0
DA:74,0
DA:75,0
DA:77,0
DA:80,0
DA:82,0
DA:83,0
DA:85,0
DA:87,0
DA:88,0
DA:90,0
DA:92,0
DA:94,0
DA:95,0
DA:96,0
DA:97,0
DA:100,0
DA:102,0
DA:104,0
DA:105,0
DA:107,0
DA:108,0
DA:110,0
DA:112,0
DA:114,0
DA:116,0
DA:117,0
DA:118,0
DA:121,0
DA:123,0
DA:129,0
DA:131,0
DA:133,0
DA:135,0
DA:136,0
DA:138,0
DA:140,0
DA:141,0
DA:142,0
DA:144,0
DA:145,0
DA:146,0
DA:148,0
DA:149,0
DA:151,0
DA:152,0
DA:154,0
DA:156,0
DA:157,0
DA:158,0
DA:160,0
DA:162,0
DA:163,0
DA:164,0
DA:166,0
DA:167,0
DA:168,0
DA:170,0
DA:171,0
DA:173,0
DA:174,0
DA:176,0
DA:178,0
DA:179,0
DA:180,0
DA:182,0
DA:183,0
DA:184,0
DA:187,0
LF:91
LH:0
end_of_record
TN:
SF:/home/atcsol/eclipse-workspace_FIE/asw_pus_freertos_prac9/llsw/emu_gss/src/emu_gss_pus_service05.cpp
FN:101,143,_ZN17GSSServ5TMHandler10ShowTM_5_1Ev
FN:145,151,_ZN17GSSServ5TMHandler10ShowTM_5_2Ev
FN:153,159,_ZN17GSSServ5TMHandler10ShowTM_5_3Ev
FN:161,212,_ZN17GSSServ5TMHandler10ShowTM_5_4Ev
FN:37,44,_ZN19EmuGSS_TCProgram5_5C2EjPKct
FN:46,51,_ZN19EmuGSS_TCProgram5_514BuildTCAppDataER17tc_mem_descriptor
FN:53,60,_ZN19EmuGSS_TCProgram5_6C2EjPKct
FN:62,67,_ZN19EmuGSS_TCProgram5_614BuildTCAppDataER17tc_mem_descriptor
FN:70,75,_Z18EmuGSS_ShowServ5TMPK17tm_mem_descriptor
FN:77,80,_ZN17GSSServ5TMHandlerC2EPKh
FN:82,99,_ZN17GSSServ5TMHandler6ShowTMEv
FNDA:2,_ZN17GSSServ5TMHandler10ShowTM_5_1Ev
FNDA:0,_ZN17GSSServ5TMHandler10ShowTM_5_2Ev
FNDA:0,_ZN17GSSServ5TMHandler10ShowTM_5_3Ev
FNDA:1,_ZN17GSSServ5TMHandler10ShowTM_5_4Ev
FNDA:0,_ZN19EmuGSS_TCProgram5_5C2EjPKct
FNDA:0,_ZN19EmuGSS_TCProgram5_514BuildTCAppDataER17tc_mem_descriptor
FNDA:0,_ZN19EmuGSS_TCProgram5_6C2EjPKct
FNDA:0,_ZN19EmuGSS_TCProgram5_614BuildTCAppDataER17tc_mem_descriptor
FNDA:3,_Z18EmuGSS_ShowServ5TMPK17tm_mem_descriptor
FNDA:3,_ZN17GSSServ5TMHandlerC2EPKh
FNDA:3,_ZN17GSSServ5TMHandler6ShowTMEv
FNF:11
FNH:5
DA:37,0
DA:38,0
DA:40,0
DA:42,0
DA:43,0
DA:44,0
DA:46,0
DA:48,0
DA:49,0
DA:51,0
DA:53,0
DA:54,0
DA:56,0
DA:58,0
DA:59,0
DA:60,0
DA:62,0
DA:64,0
DA:65,0
DA:67,0
DA:70,3
DA:72,3
DA:73,3
DA:75,3
DA:77,3
DA:78,3
DA:80,3
DA:82,3
DA:84,3
DA:85,2
DA:86,2
DA:87,2
DA:88,0
DA:89,0
DA:90,0
DA:91,0
DA:92,0
DA:93,0
DA:94,1
DA:95,1
DA:96,1
DA:99,3
DA:101,2
DA:103,2
DA:105,2
DA:107,2
DA:109,1
DA:111,1
DA:112,1
DA:114,0
DA:116,0
DA:117,0
DA:119,0
DA:121,0
DA:122,0
DA:123,1
DA:124,1
DA:125,1
DA:126,0
DA:127,0
DA:128,0
DA:129,0
DA:130,0
DA:131,0
DA:132,0
DA:133,0
DA:134,0
DA:135,0
DA:136,0
DA:137,0
DA:139,0
DA:140,0
DA:142,2
DA:143,2
DA:145,0
DA:147,0
DA:149,0
DA:151,0
DA:153,0
DA:155,0
DA:157,0
DA:159,0
DA:161,1
DA:163,1
DA:165,1
DA:167,1
DA:168,1
DA:171,1
DA:177,1
DA:179,1
DA:181,0
DA:182,0
DA:183,0
DA:184,0
DA:186,1
DA:187,1
DA:188,1
DA:189,1
DA:190,0
DA:192,0
DA:195,1
DA:196,1
DA:198,1
DA:199,0
DA:200,1
DA:201,0
DA:203,1
DA:205,1
DA:207,1
DA:209,1
DA:212,1
LF:111
LH:49
end_of_record
TN:
SF:/home/atcsol/eclipse-workspace_FIE/asw_pus_freertos_prac9/llsw/emu_gss/src/emu_gss_pus_service09.cpp
FN:33,41,_ZN21EmuGSS_TCProgram9_129C2EjPKcj
FN:43,47,_ZN21EmuGSS_TCProgram9_12914BuildTCAppDataER17tc_mem_descriptor
FNDA:0,_ZN21EmuGSS_TCProgram9_129C2EjPKcj
FNDA:0,_ZN21EmuGSS_TCProgram9_12914BuildTCAppDataER17tc_mem_descriptor
FNF:2
FNH:0
DA:33,0
DA:35,0
DA:37,0
DA:39,0
DA:40,0
DA:41,0
DA:43,0
DA:45,0
DA:47,0
LF:9
LH:0
end_of_record
TN:
SF:/home/atcsol/eclipse-workspace_FIE/asw_pus_freertos_prac9/llsw/emu_gss/src/emu_gss_pus_service12.cpp
FN:107,123,_ZN32EmuGSS_TCProgram12_5_Limit_UINT8C2EjPKctthhhtht
FN:125,139,_ZN32EmuGSS_TCProgram12_5_Limit_UINT814BuildTCAppDataER17tc_mem_descriptor
FN:141,156,_ZN32EmuGSS_TCProgram12_5_Value_UINT8C2EjPKctthhhht
FN:158,171,_ZN32EmuGSS_TCProgram12_5_Value_UINT814BuildTCAppDataER17tc_mem_descriptor
FN:173,180,_ZN20EmuGSS_TCProgram12_6C2EjPKct
FN:182,187,_ZN20EmuGSS_TCProgram12_614BuildTCAppDataER17tc_mem_descriptor
FN:190,195,_Z19EmuGSS_ShowServ12TMPK17tm_mem_descriptor
FN:197,200,_ZN18GSSServ12TMHandlerC2EPKh
FN:202,210,_ZN18GSSServ12TMHandler6ShowTMEv
FN:212,226,_ZN18GSSServ12TMHandler15ShowValueStatusE18check_value_status
FN:228,247,_ZN18GSSServ12TMHandler15ShowLimitStatusE19check_limits_status
FN:249,366,_ZN18GSSServ12TMHandler12ShowTM_12_12Ev
FN:41,48,_ZN20EmuGSS_TCProgram12_1C2EjPKct
FN:50,55,_ZN20EmuGSS_TCProgram12_114BuildTCAppDataER17tc_mem_descriptor
FN:57,64,_ZN20EmuGSS_TCProgram12_2C2EjPKct
FN:66,71,_ZN20EmuGSS_TCProgram12_214BuildTCAppDataER17tc_mem_descriptor
FN:73,89,_ZN33EmuGSS_TCProgram12_5_Limit_UINT32C2EjPKctthhjtjt
FN:91,105,_ZN33EmuGSS_TCProgram12_5_Limit_UINT3214BuildTCAppDataER17tc_mem_descriptor
FNDA:1,_ZN32EmuGSS_TCProgram12_5_Limit_UINT8C2EjPKctthhhtht
FNDA:1,_ZN32EmuGSS_TCProgram12_5_Limit_UINT814BuildTCAppDataER17tc_mem_descriptor
FNDA:0,_ZN32EmuGSS_TCProgram12_5_Value_UINT8C2EjPKctthhhht
FNDA:0,_ZN32EmuGSS_TCProgram12_5_Value_UINT814BuildTCAppDataER17tc_mem_descriptor
FNDA:0,_ZN20EmuGSS_TCProgram12_6C2EjPKct
FNDA:0,_ZN20EmuGSS_TCProgram12_614BuildTCAppDataER17tc_mem_descriptor
FNDA:2,_Z19EmuGSS_ShowServ12TMPK17tm_mem_descriptor
FNDA:2,_ZN18GSSServ12TMHandlerC2EPKh
FNDA:2,_ZN18GSSServ12TMHandler6ShowTMEv
FNDA:0,_ZN18GSSServ12TMHandler15ShowValueStatusE18check_value_status
FNDA:4,_ZN18GSSServ12TMHandler15ShowLimitStatusE19check_limits_status
FNDA:2,_ZN18GSSServ12TMHandler12ShowTM_12_12Ev
FNDA:1,_ZN20EmuGSS_TCProgram12_1C2EjPKct
FNDA:1,_ZN20EmuGSS_TCProgram12_114BuildTCAppDataER17tc_mem_descriptor
FNDA:0,_ZN20EmuGSS_TCProgram12_2C2EjPKct
FNDA:0,_ZN20EmuGSS_TCProgram12_214BuildTCAppDataER17tc_mem_descriptor
FNDA:0,_ZN33EmuGSS_TCProgram12_5_Limit_UINT32C2EjPKctthhjtjt
FNDA:0,_ZN33EmuGSS_TCProgram12_5_Limit_UINT3214BuildTCAppDataER17tc_mem_descriptor
FNF:18
FNH:9
DA:41,1
DA:42,1
DA:44,1
DA:46,1
DA:47,1
DA:48,1
DA:50,1
DA:52,1
DA:53,1
DA:55,1
DA:57,0
DA:58,0
DA:60,0
DA:62,0
DA:63,0
DA:64,0
DA:66,0
DA:68,0
DA:69,0
DA:71,0
DA:73,0
DA:76,0
DA:78,0
DA:80,0
DA:81,0
DA:82,0
DA:83,0
DA:84,0
DA:85,0
DA:86,0
DA:87,0
DA:88,0
DA:89,0
DA:91,0
DA:94,0
DA:95,0
DA:96,0
DA:97,0
DA:98,0
DA:99,0
DA:100,0
DA:101,0
DA:102,0
DA:103,0
DA:105,0
DA:107,1
DA:110,1
DA:112,1
DA:114,1
DA:115,1
DA:116,1
DA:117,1
DA:118,1
DA:119,1
DA:120,1
DA:121,1
DA:122,1
DA:123,1
DA:125,1
DA:128,1
DA:129,1
DA:130,1
DA:131,1
DA:132,1
DA:133,1
DA:134,1
DA:135,1
DA:136,1
DA:137,1
DA:139,1
DA:141,0
DA:144,0
DA:146,0
DA:148,0
DA:149,0
DA:150,0
DA:151,0
DA:152,0
DA:153,0
DA:154,0
DA:155,0
DA:156,0
DA:158,0
DA:161,0
DA:162,0
DA:163,0
DA:164,0
DA:165,0
DA:166,0
DA:167,0
DA:168,0
DA:169,0
DA:171,0
DA:173,0
DA:174,0
DA:176,0
DA:178,0
DA:179,0
DA:180,0
DA:182,0
DA:184,0
DA:185,0
DA:187,0
DA:190,2
DA:192,2
DA:193,2
DA:195,2
DA:197,2
DA:198,2
DA:200,2
DA:202,2
DA:204,2
DA:205,2
DA:206,2
DA:207,2
DA:210,2
DA:212,0
DA:214,0
DA:216,0
DA:217,0
DA:218,0
DA:219,0
DA:220,0
DA:221,0
DA:222,0
DA:223,0
DA:224,0
DA:226,0
DA:228,4
DA:230,4
DA:232,2
DA:233,2
DA:234,2
DA:235,1
DA:236,1
DA:237,1
DA:238,0
DA:239,0
DA:240,0
DA:241,1
DA:242,1
DA:243,1
DA:247,4
DA:249,2
DA:254,2
DA:256,4
DA:258,2
DA:260,2
DA:262,2
DA:268,2
DA:270,2
DA:272,2
DA:274,0
DA:275,0
DA:276,0
DA:278,2
DA:279,2
DA:281,2
DA:283,0
DA:284,0
DA:285,0
DA:289,2
DA:291,0
DA:293,0
DA:295,0
DA:299,0
DA:300,0
DA:302,0
DA:304,2
DA:306,2
DA:308,0
DA:312,2
DA:313,2
DA:317,2
DA:318,2
DA:321,2
DA:323,0
DA:324,0
DA:325,0
DA:326,0
DA:327,0
DA:329,0
DA:332,0
DA:334,0
DA:335,0
DA:338,0
DA:339,0
DA:340,0
DA:343,2
DA:344,2
DA:345,2
DA:347,2
DA:350,2
DA:351,2
DA:352,2
DA:354,2
DA:355,2
DA:356,2
DA:360,2
DA:362,2
DA:366,2
LF:201
LH:93
end_of_record
TN:
SF:/home/atcsol/eclipse-workspace_FIE/asw_pus_freertos_prac9/llsw/emu_gss/src/emu_gss_pus_service128.cpp
FN:33,39,_ZN21EmuGSS_TCProgram128_1C2EjPKc
FN:42,47,_ZN21EmuGSS_TCProgram128_1C2Ev
FN:49,52,_ZN21EmuGSS_TCProgram128_114BuildTCAppDataER17tc_mem_descriptor
FNDA:1,_ZN21EmuGSS_TCProgram128_1C2EjPKc
FNDA:0,_ZN21EmuGSS_TCProgram128_1C2Ev
FNDA:1,_ZN21EmuGSS_TCProgram128_114BuildTCAppDataER17tc_mem_descriptor
FNF:3
FNH:2
DA:33,1
DA:34,1
DA:36,1
DA:38,1
DA:39,1
DA:42,0
DA:43,0
DA:47,0
DA:49,1
DA:52,1
LF:10
LH:7
end_of_record
TN:
SF:/home/atcsol/eclipse-workspace_FIE/asw_pus_freertos_prac9/llsw/emu_gss/src/emu_gss_pus_service129.cpp
FN:102,106,_ZN21EmuGSS_TCProgram129_414BuildTCAppDataER17tc_mem_descriptor
FN:17,27,_ZN21EmuGSS_TCProgram129_1C2EjPKcfff
FN:29,37,_ZN21EmuGSS_TCProgram129_114BuildTCAppDataER17tc_mem_descriptor
FN:41,51,_ZN21EmuGSS_TCProgram129_2C2EjPKcfff
FN:53,61,_ZN21EmuGSS_TCProgram129_214BuildTCAppDataER17tc_mem_descriptor
FN:64,70,_ZN21EmuGSS_TCProgram129_3C2EjPKc
FN:72,77,_ZN21EmuGSS_TCProgram129_3C2Ev
FN:80,84,_ZN21EmuGSS_TCProgram129_314BuildTCAppDataER17tc_mem_descriptor
FN:86,92,_ZN21EmuGSS_TCProgram129_4C2EjPKc
FN:94,99,_ZN21EmuGSS_TCProgram129_4C2Ev
FNDA:0,_ZN21EmuGSS_TCProgram129_414BuildTCAppDataER17tc_mem_descriptor
FNDA:0,_ZN21EmuGSS_TCProgram129_1C2EjPKcfff
FNDA:0,_ZN21EmuGSS_TCProgram129_114BuildTCAppDataER17tc_mem_descriptor
FNDA:0,_ZN21EmuGSS_TCProgram129_2C2EjPKcfff
FNDA:0,_ZN21EmuGSS_TCProgram129_214BuildTCAppDataER17tc_mem_descriptor
FNDA:0,_ZN21EmuGSS_TCProgram129_3C2EjPKc
FNDA:0,_ZN21EmuGSS_TCProgram129_3C2Ev
FNDA:0,_ZN21EmuGSS_TCProgram129_314BuildTCAppDataER17tc_mem_descriptor
FNDA:0,_ZN21EmuGSS_TCProgram129_4C2EjPKc
FNDA:0,_ZN21EmuGSS_TCProgram129_4C2Ev
FNF:10
FNH:0
DA:17,0
DA:19,0
DA:21,0
DA:23,0
DA:24,0
DA:25,0
DA:26,0
DA:27,0
DA:29,0
DA:32,0
DA:33,0
DA:34,0
DA:37,0
DA:41,0
DA:43,0
DA:45,0
DA:47,0
DA:48,0
DA:49,0
DA:50,0
DA:51,0
DA:53,0
DA:56,0
DA:57,0
DA:58,0
DA:61,0
DA:64,0
DA:65,0
DA:67,0
DA:69,0
DA:70,0
DA:72,0
DA:73,0
DA:77,0
DA:80,0
DA:84,0
DA:86,0
DA:87,0
DA:89,0
DA:91,0
DA:92,0
DA:94,0
DA:95,0
DA:99,0
DA:102,0
DA:106,0
LF:46
LH:0
end_of_record
TN:
SF:/home/atcsol/eclipse-workspace_FIE/asw_pus_freertos_prac9/llsw/emu_gss/src/emu_gss_pus_service17.cpp
FN:30,35,_ZN20EmuGSS_TCProgram17_1C2EjPKc
FN:37,39,_ZN20EmuGSS_TCProgram17_114BuildTCAppDataER17tc_mem_descriptor
FN:41,47,_ZN32EmuGSS_TCProgram17_1_DISABLE_1_7C2EjPKc
FN:49,52,_ZN32EmuGSS_TCProgram17_1_DISABLE_1_714BuildTCAppDataER17tc_mem_descriptor
FN:56,62,_ZN20EmuGSS_TCProgram17_3C2EjPKct
FN:64,66,_ZN20EmuGSS_TCProgram17_314BuildTCAppDataER17tc_mem_descriptor
FNDA:1,_ZN20EmuGSS_TCProgram17_1C2EjPKc
FNDA:1,_ZN20EmuGSS_TCProgram17_114BuildTCAppDataER17tc_mem_descriptor
FNDA:1,_ZN32EmuGSS_TCProgram17_1_DISABLE_1_7C2EjPKc
FNDA:1,_ZN32EmuGSS_TCProgram17_1_DISABLE_1_714BuildTCAppDataER17tc_mem_descriptor
FNDA:1,_ZN20EmuGSS_TCProgram17_3C2EjPKct
FNDA:1,_ZN20EmuGSS_TCProgram17_314BuildTCAppDataER17tc_mem_descriptor
FNF:6
FNH:6
DA:30,1
DA:31,1
DA:32,1
DA:34,1
DA:35,1
DA:37,1
DA:39,1
DA:41,1
DA:42,1
DA:43,1
DA:45,1
DA:46,1
DA:47,1
DA:49,1
DA:52,1
DA:56,1
DA:57,1
DA:58,1
DA:60,1
DA:61,1
DA:62,1
DA:64,1
DA:66,1
LF:23
LH:23
end_of_record
TN:
SF:/home/atcsol/eclipse-workspace_FIE/asw_pus_freertos_prac9/llsw/emu_gss/src/emu_gss_pus_service19.cpp
FN:105,112,_ZN33EmuGSS_TCProgram19_1_Action_129_4C2EjPKct
FN:114,129,_ZN33EmuGSS_TCProgram19_1_Action_129_414BuildTCAppDataER17tc_mem_descriptor
FN:132,139,_ZN20EmuGSS_TCProgram19_2C2EjPKct
FN:141,145,_ZN20EmuGSS_TCProgram19_214BuildTCAppDataER17tc_mem_descriptor
FN:147,154,_ZN20EmuGSS_TCProgram19_4C2EjPKct
FN:156,161,_ZN20EmuGSS_TCProgram19_414BuildTCAppDataER17tc_mem_descriptor
FN:163,170,_ZN20EmuGSS_TCProgram19_5C2EjPKct
FN:172,177,_ZN20EmuGSS_TCProgram19_514BuildTCAppDataER17tc_mem_descriptor
FN:180,185,_Z19EmuGSS_ShowServ19TMPK17tm_mem_descriptor
FN:187,190,_ZN18GSSServ19TMHandlerC2EPKh
FN:192,194,_ZN18GSSServ19TMHandler6ShowTMEv
FN:53,61,_ZN31EmuGSS_TCProgram19_1_Action_2_1C2EjPKct20DeviceCommandOnOff_t
FN:63,77,_ZN31EmuGSS_TCProgram19_1_Action_2_114BuildTCAppDataER17tc_mem_descriptor
FN:79,86,_ZN33EmuGSS_TCProgram19_1_Action_128_1C2EjPKct
FN:88,103,_ZN33EmuGSS_TCProgram19_1_Action_128_114BuildTCAppDataER17tc_mem_descriptor
FNDA:0,_ZN33EmuGSS_TCProgram19_1_Action_129_4C2EjPKct
FNDA:0,_ZN33EmuGSS_TCProgram19_1_Action_129_414BuildTCAppDataER17tc_mem_descriptor
FNDA:0,_ZN20EmuGSS_TCProgram19_2C2EjPKct
FNDA:0,_ZN20EmuGSS_TCProgram19_214BuildTCAppDataER17tc_mem_descriptor
FNDA:1,_ZN20EmuGSS_TCProgram19_4C2EjPKct
FNDA:1,_ZN20EmuGSS_TCProgram19_414BuildTCAppDataER17tc_mem_descriptor
FNDA:0,_ZN20EmuGSS_TCProgram19_5C2EjPKct
FNDA:0,_ZN20EmuGSS_TCProgram19_514BuildTCAppDataER17tc_mem_descriptor
FNDA:0,_Z19EmuGSS_ShowServ19TMPK17tm_mem_descriptor
FNDA:0,_ZN18GSSServ19TMHandlerC2EPKh
FNDA:0,_ZN18GSSServ19TMHandler6ShowTMEv
FNDA:1,_ZN31EmuGSS_TCProgram19_1_Action_2_1C2EjPKct20DeviceCommandOnOff_t
FNDA:1,_ZN31EmuGSS_TCProgram19_1_Action_2_114BuildTCAppDataER17tc_mem_descriptor
FNDA:0,_ZN33EmuGSS_TCProgram19_1_Action_128_1C2EjPKct
FNDA:0,_ZN33EmuGSS_TCProgram19_1_Action_128_114BuildTCAppDataER17tc_mem_descriptor
FNF:15
FNH:4
DA:53,1
DA:55,1
DA:57,1
DA:59,1
DA:60,1
DA:61,1
DA:63,1
DA:68,1
DA:70,1
DA:71,1
DA:73,1
DA:74,19
DA:75,18
DA:77,1
DA:79,0
DA:80,0
DA:82,0
DA:83,0
DA:84,0
DA:86,0
DA:88,0
DA:93,0
DA:95,0
DA:96,0
DA:98,0
DA:100,0
DA:101,0
DA:103,0
DA:105,0
DA:106,0
DA:108,0
DA:109,0
DA:110,0
DA:112,0
DA:114,0
DA:119,0
DA:121,0
DA:122,0
DA:124,0
DA:126,0
DA:127,0
DA:129,0
DA:132,0
DA:133,0
DA:135,0
DA:137,0
DA:138,0
DA:139,0
DA:141,0
DA:142,0
DA:143,0
DA:145,0
DA:147,1
DA:148,1
DA:150,1
DA:152,1
DA:153,1
DA:154,1
DA:156,1
DA:158,1
DA:159,1
DA:161,1
DA:163,0
DA:164,0
DA:166,0
DA:168,0
DA:169,0
DA:170,0
DA:172,0
DA:174,0
DA:175,0
DA:177,0
DA:180,0
DA:182,0
DA:183,0
DA:185,0
DA:187,0
DA:188,0
DA:190,0
DA:192,0
DA:194,0
LF:81
LH:24
end_of_record
TN:
SF:/home/atcsol/eclipse-workspace_FIE/asw_pus_freertos_prac9/llsw/emu_gss/src/emu_gss_pus_service20.cpp
FN:102,105,_ZN18GSSServ20TMHandlerC2EPKh
FN:107,115,_ZN18GSSServ20TMHandler6ShowTMEv
FN:117,153,_ZN18GSSServ20TMHandler11ShowTM_20_2Ev
FN:39,46,_ZN20EmuGSS_TCProgram20_1C2EjPKct
FN:48,53,_ZN20EmuGSS_TCProgram20_114BuildTCAppDataER17tc_mem_descriptor
FN:55,64,_ZN26EmuGSS_TCProgram20_3_uint8C2EjPKcth
FN:66,73,_ZN26EmuGSS_TCProgram20_3_uint814BuildTCAppDataER17tc_mem_descriptor
FN:75,84,_ZN27EmuGSS_TCProgram20_3_uint32C2EjPKctj
FN:86,93,_ZN27EmuGSS_TCProgram20_3_uint3214BuildTCAppDataER17tc_mem_descriptor
FN:95,100,_Z19EmuGSS_ShowServ20TMPK17tm_mem_descriptor
FNDA:1,_ZN18GSSServ20TMHandlerC2EPKh
FNDA:1,_ZN18GSSServ20TMHandler6ShowTMEv
FNDA:1,_ZN18GSSServ20TMHandler11ShowTM_20_2Ev
FNDA:1,_ZN20EmuGSS_TCProgram20_1C2EjPKct
FNDA:1,_ZN20EmuGSS_TCProgram20_114BuildTCAppDataER17tc_mem_descriptor
FNDA:3,_ZN26EmuGSS_TCProgram20_3_uint8C2EjPKcth
FNDA:3,_ZN26EmuGSS_TCProgram20_3_uint814BuildTCAppDataER17tc_mem_descriptor
FNDA:0,_ZN27EmuGSS_TCProgram20_3_uint32C2EjPKctj
FNDA:0,_ZN27EmuGSS_TCProgram20_3_uint3214BuildTCAppDataER17tc_mem_descriptor
FNDA:1,_Z19EmuGSS_ShowServ20TMPK17tm_mem_descriptor
FNF:10
FNH:8
DA:39,1
DA:40,1
DA:42,1
DA:44,1
DA:45,1
DA:46,1
DA:48,1
DA:50,1
DA:51,1
DA:53,1
DA:55,3
DA:56,3
DA:58,3
DA:60,3
DA:61,3
DA:63,3
DA:64,3
DA:66,3
DA:69,3
DA:70,3
DA:71,3
DA:73,3
DA:75,0
DA:76,0
DA:78,0
DA:80,0
DA:81,0
DA:83,0
DA:84,0
DA:86,0
DA:89,0
DA:90,0
DA:91,0
DA:93,0
DA:95,1
DA:97,1
DA:98,1
DA:100,1
DA:102,1
DA:103,1
DA:105,1
DA:107,1
DA:109,1
DA:110,1
DA:111,1
DA:112,1
DA:115,1
DA:117,1
DA:122,1
DA:124,2
DA:126,1
DA:128,1
DA:132,1
DA:133,0
DA:134,0
DA:138,0
DA:139,1
DA:140,1
DA:144,1
DA:145,1
DA:147,1
DA:149,1
DA:150,1
DA:153,1
LF:64
LH:49
end_of_record
TN:
SF:/home/atcsol/eclipse-workspace_FIE/asw_pus_freertos_prac9/llsw/emu_gss/src/emu_gss_sys_data_pool.cpp
FN:40,139,_ZN14GSSSysDataPool12ShowPIDValueEt14data_pool_item
FNDA:19,_ZN14GSSSysDataPool12ShowPIDValueEt14data_pool_item
FNF:1
FNH:1
DA:40,19
DA:44,19
DA:46,19
DA:48,0
DA:51,0
DA:54,0
DA:56,0
DA:57,0
DA:61,0
DA:62,0
DA:64,0
DA:65,0
DA:69,0
DA:73,0
DA:74,19
DA:76,19
DA:77,0
DA:79,19
DA:81,19
DA:82,0
DA:83,0
DA:85,0
DA:87,0
DA:88,0
DA:89,0
DA:90,0
DA:91,0
DA:93,0
DA:94,0
DA:95,0
DA:96,0
DA:97,0
DA:98,0
DA:100,0
DA:101,0
DA:102,0
DA:103,0
DA:104,0
DA:105,0
DA:107,0
DA:108,0
DA:109,0
DA:110,0
DA:111,0
DA:112,0
DA:114,0
DA:115,0
DA:116,0
DA:117,0
DA:118,0
DA:119,0
DA:120,0
DA:121,0
DA:122,0
DA:123,0
DA:124,0
DA:125,0
DA:127,0
DA:128,0
DA:129,0
DA:130,0
DA:133,0
DA:135,0
DA:136,0
DA:139,19
LF:65
LH:8
end_of_record
TN:
SF:/home/atcsol/eclipse-workspace_FIE/asw_pus_freertos_prac9/llsw/emu_gss/src/emu_gss_tc_program.cpp
FN:104,121,_ZN16EmuGSS_TCProgram7BuildTCER17tc_mem_descriptor
FN:123,129,_ZN16EmuGSS_TCProgram16DisableAcceptACKEv
FN:130,135,_ZN16EmuGSS_TCProgram19DisableExecStartACKEv
FN:136,140,_ZN16EmuGSS_TCProgram18DisableExecProgACKEv
FN:141,145,_ZN16EmuGSS_TCProgram24DisableExecCompletionACKEv
FN:148,171,_ZN16EmuGSS_TCProgram17BuildTCPackHeaderER17tc_mem_descriptor
FN:172,180,_ZN16EmuGSS_TCProgram15BuildTCDFHeaderER17tc_mem_descriptor
FN:182,185,_ZN16EmuGSS_TCProgram12SetNextUInt8Eh
FN:187,190,_ZN16EmuGSS_TCProgram13SetNextUInt16Et
FN:192,195,_ZN16EmuGSS_TCProgram13SetNextUInt32Ej
FN:196,199,_ZN16EmuGSS_TCProgram13SetNextUInt64Em
FN:201,204,_ZN16EmuGSS_TCProgram11SetNextInt8Ea
FN:205,208,_ZN16EmuGSS_TCProgram12SetNextInt16Es
FN:210,213,_ZN16EmuGSS_TCProgram12SetNextInt32Ei
FN:214,217,_ZN16EmuGSS_TCProgram12SetNextInt64El
FN:219,224,_ZN16EmuGSS_TCProgram12SetNextFloatERf
FN:39,43,_ZN16EmuGSS_TCProgram21GetCurrentTCProgramedEv
FN:45,56,_ZN16EmuGSS_TCProgramC2EjhhtPKc
FN:58,68,_ZN16EmuGSS_TCProgram21SetCurrentTCProgramedEj
FN:70,102,_ZN16EmuGSS_TCProgram10NewProgramEPS_
FNDA:16,_ZN16EmuGSS_TCProgram7BuildTCER17tc_mem_descriptor
FNDA:0,_ZN16EmuGSS_TCProgram16DisableAcceptACKEv
FNDA:0,_ZN16EmuGSS_TCProgram19DisableExecStartACKEv
FNDA:0,_ZN16EmuGSS_TCProgram18DisableExecProgACKEv
FNDA:1,_ZN16EmuGSS_TCProgram24DisableExecCompletionACKEv
FNDA:16,_ZN16EmuGSS_TCProgram17BuildTCPackHeaderER17tc_mem_descriptor
FNDA:16,_ZN16EmuGSS_TCProgram15BuildTCDFHeaderER17tc_mem_descriptor
FNDA:39,_ZN16EmuGSS_TCProgram12SetNextUInt8Eh
FNDA:14,_ZN16EmuGSS_TCProgram13SetNextUInt16Et
FNDA:1,_ZN16EmuGSS_TCProgram13SetNextUInt32Ej
FNDA:0,_ZN16EmuGSS_TCProgram13SetNextUInt64Em
FNDA:0,_ZN16EmuGSS_TCProgram11SetNextInt8Ea
FNDA:0,_ZN16EmuGSS_TCProgram12SetNextInt16Es
FNDA:0,_ZN16EmuGSS_TCProgram12SetNextInt32Ei
FNDA:0,_ZN16EmuGSS_TCProgram12SetNextInt64El
FNDA:0,_ZN16EmuGSS_TCProgram12SetNextFloatERf
FNDA:15,_ZN16EmuGSS_TCProgram21GetCurrentTCProgramedEv
FNDA:16,_ZN16EmuGSS_TCProgramC2EjhhtPKc
FNDA:115,_ZN16EmuGSS_TCProgram21SetCurrentTCProgramedEj
FNDA:15,_ZN16EmuGSS_TCProgram10NewProgramEPS_
FNF:20
FNH:11
DA:39,15
DA:41,15
DA:45,16
DA:46,16
DA:48,16
DA:49,16
DA:50,16
DA:51,16
DA:52,16
DA:53,16
DA:54,16
DA:55,16
DA:56,16
DA:58,115
DA:59,115
DA:60,115
DA:61,114
DA:62,15
DA:63,15
DA:64,15
DA:67,115
DA:70,15
DA:71,15
DA:73,15
DA:74,1
DA:75,1
DA:77,14
DA:79,14
DA:80,14
DA:81,102
DA:82,88
DA:83,9
DA:84,8
DA:86,1
DA:88,9
DA:89,9
DA:91,79
DA:92,79
DA:93,79
DA:94,5
DA:95,5
DA:96,5
DA:102,15
DA:104,16
DA:106,16
DA:108,16
DA:109,16
DA:110,16
DA:111,16
DA:113,16
DA:114,16
DA:115,16
DA:117,16
DA:118,16
DA:121,16
DA:123,0
DA:126,0
DA:129,0
DA:130,0
DA:133,0
DA:135,0
DA:136,0
DA:139,0
DA:140,0
DA:141,1
DA:144,1
DA:145,1
DA:148,16
DA:150,16
DA:151,16
DA:153,16
DA:156,16
DA:158,16
DA:159,16
DA:161,16
DA:164,16
DA:167,16
DA:171,16
DA:172,16
DA:174,16
DA:175,16
DA:176,16
DA:177,16
DA:178,16
DA:180,16
DA:182,39
DA:183,39
DA:184,39
DA:185,39
DA:187,14
DA:188,14
DA:189,14
DA:190,14
DA:192,1
DA:193,1
DA:194,1
DA:195,1
DA:196,0
DA:197,0
DA:198,0
DA:199,0
DA:201,0
DA:202,0
DA:203,0
DA:204,0
DA:205,0
DA:206,0
DA:207,0
DA:208,0
DA:210,0
DA:211,0
DA:212,0
DA:213,0
DA:214,0
DA:215,0
DA:216,0
DA:217,0
DA:219,0
DA:221,0
DA:222,0
DA:223,0
DA:224,0
LF:122
LH:88
end_of_record
TN:
SF:/home/atcsol/eclipse-workspace_FIE/asw_pus_freertos_prac9/llsw/emu_gss/src/emu_gss_tm_handler.cpp
FN:101,108,_ZN12GSSTMHandler25GetNextUInt64AppDataFieldEv
FN:110,116,_ZN12GSSTMHandler23GetNextInt8AppDataFieldEv
FN:118,125,_ZN12GSSTMHandler24GetNextInt16AppDataFieldEv
FN:127,134,_ZN12GSSTMHandler24GetNextInt32AppDataFieldEv
FN:136,142,_ZN12GSSTMHandler24GetNextInt64AppDataFieldEv
FN:39,47,_ZN12GSSTMHandler10GetPUSTypeEPK17tm_mem_descriptor
FN:49,58,_ZN12GSSTMHandler13GetPUSSubtypeEPK17tm_mem_descriptor
FN:60,74,_ZN12GSSTMHandlerC2EPKh
FN:76,82,_ZN12GSSTMHandler24GetNextUInt8AppDataFieldEv
FN:84,90,_ZN12GSSTMHandler25GetNextUInt16AppDataFieldEv
FN:92,99,_ZN12GSSTMHandler25GetNextUInt32AppDataFieldEv
FNDA:0,_ZN12GSSTMHandler25GetNextUInt64AppDataFieldEv
FNDA:0,_ZN12GSSTMHandler23GetNextInt8AppDataFieldEv
FNDA:0,_ZN12GSSTMHandler24GetNextInt16AppDataFieldEv
FNDA:0,_ZN12GSSTMHandler24GetNextInt32AppDataFieldEv
FNDA:0,_ZN12GSSTMHandler24GetNextInt64AppDataFieldEv
FNDA:57,_ZN12GSSTMHandler10GetPUSTypeEPK17tm_mem_descriptor
FNDA:57,_ZN12GSSTMHandler13GetPUSSubtypeEPK17tm_mem_descriptor
FNDA:55,_ZN12GSSTMHandlerC2EPKh
FNDA:30,_ZN12GSSTMHandler24GetNextUInt8AppDataFieldEv
FNDA:101,_ZN12GSSTMHandler25GetNextUInt16AppDataFieldEv
FNDA:2,_ZN12GSSTMHandler25GetNextUInt32AppDataFieldEv
FNF:11
FNH:6
DA:39,57
DA:41,57
DA:42,57
DA:43,57
DA:45,57
DA:49,57
DA:52,57
DA:53,57
DA:54,57
DA:56,57
DA:60,55
DA:62,55
DA:63,55
DA:64,55
DA:66,55
DA:67,55
DA:68,55
DA:70,55
DA:72,55
DA:74,55
DA:76,30
DA:79,30
DA:80,30
DA:81,30
DA:84,101
DA:87,101
DA:88,101
DA:89,101
DA:92,2
DA:95,2
DA:96,2
DA:97,2
DA:101,0
DA:104,0
DA:105,0
DA:106,0
DA:110,0
DA:112,0
DA:113,0
DA:114,0
DA:118,0
DA:121,0
DA:122,0
DA:123,0
DA:127,0
DA:130,0
DA:131,0
DA:132,0
DA:136,0
DA:139,0
DA:140,0
DA:141,0
LF:52
LH:32
end_of_record
TN:
SF:/home/atcsol/eclipse-workspace_FIE/asw_pus_freertos_prac9/llsw/emu_hw_timecode_drv/src/emu_hw_timecode_drv.cpp
FN:18,23,_Z20EmuHwTimeCodeStartUpv
FN:25,36,_Z23EmuHwTimeCodePassSecondv
FN:38,41,EmuHwTimeCodeSetNextOBT
FN:43,47,EmuHwTimeCodeGetCurrentOBT
FN:49,53,EmuHwTimeCodeGetCurrentFineTimeOBT
FNDA:1,_Z20EmuHwTimeCodeStartUpv
FNDA:100,_Z23EmuHwTimeCodePassSecondv
FNDA:0,EmuHwTimeCodeSetNextOBT
FNDA:260,EmuHwTimeCodeGetCurrentOBT
FNDA:0,EmuHwTimeCodeGetCurrentFineTimeOBT
FNF:5
FNH:3
DA:18,1
DA:21,1
DA:23,1
DA:25,100
DA:27,100
DA:28,100
DA:32,100
DA:36,99
DA:38,0
DA:40,0
DA:41,0
DA:43,260
DA:45,260
DA:49,0
DA:51,0
LF:15
LH:10
end_of_record
TN:
SF:/home/atcsol/eclipse-workspace_FIE/asw_pus_freertos_prac9/llsw/emu_sc_channel_drv/src/emu_sc_channel_drv.cpp
FN:106,114,SC_Channel_TxTM
FN:47,49,_Z14RXLockFunctionv
FN:50,52,_Z16RXUnlockFunctionv
FN:56,58,_Z14TXLockFunctionv
FN:59,61,_Z16TXUnlockFunctionv
FN:63,67,SC_Channel_Init
FN:69,72,_Z17SC_Channel_RxDatav
FN:74,93,_Z20SC_Channel_GetNextTCR17CDTCMemDescriptor
FN:95,104,_Z27SC_Channel_HandlePendingTCsv
FNDA:57,SC_Channel_TxTM
FNDA:75,_Z14RXLockFunctionv
FNDA:75,_Z16RXUnlockFunctionv
FNDA:57,_Z14TXLockFunctionv
FNDA:57,_Z16TXUnlockFunctionv
FNDA:1,SC_Channel_Init
FNDA:0,_Z17SC_Channel_RxDatav
FNDA:15,_Z20SC_Channel_GetNextTCR17CDTCMemDescriptor
FNDA:15,_Z27SC_Channel_HandlePendingTCsv
FNF:9
FNH:8
DA:47,75
DA:48,75
DA:49,75
DA:50,75
DA:51,75
DA:52,75
DA:56,57
DA:57,57
DA:58,57
DA:59,57
DA:60,57
DA:61,57
DA:63,1
DA:64,1
DA:66,1
DA:67,1
DA:69,0
DA:71,0
DA:74,15
DA:80,15
DA:82,15
DA:83,15
DA:85,278
DA:86,263
DA:90,15
DA:93,15
DA:95,15
DA:99,15
DA:101,0
DA:104,15
DA:106,57
DA:109,57
DA:110,57
DA:111,57
DA:114,57
LF:35
LH:32
end_of_record
TN:
SF:/home/atcsol/eclipse-workspace_FIE/asw_pus_freertos_prac9/llsw/emu_uah_drone_cinematics/src/emu_uah_drone_cinematics.cpp
FN:20,26,emu_uah_drone_on_ground
FN:33,40,emu_uah_drone_take_off
FN:42,68,emu_uah_drone_apply_control
FNDA:1,emu_uah_drone_on_ground
FNDA:0,emu_uah_drone_take_off
FNDA:0,emu_uah_drone_apply_control
FNF:3
FNH:1
DA:20,1
DA:22,1
DA:23,1
DA:24,1
DA:26,1
DA:33,0
DA:35,0
DA:36,0
DA:37,0
DA:38,0
DA:40,0
DA:42,0
DA:46,0
DA:50,0
DA:51,0
DA:53,0
DA:55,0
DA:56,0
DA:57,0
DA:60,0
DA:62,0
DA:63,0
DA:64,0
DA:67,0
LF:24
LH:5
end_of_record
TN:
SF:/home/atcsol/eclipse-workspace_FIE/asw_pus_freertos_prac9/llsw/emu_watchdog_drv/src/watchdog_drv.c
FN:13,17,watchdog_drv_startup
FN:19,23,watchdog_drv_disable_signal
FN:25,29,watchdog_drv_signal
FNDA:0,watchdog_drv_startup
FNDA:1,watchdog_drv_disable_signal
FNDA:0,watchdog_drv_signal
FNF:3
FNH:1
DA:13,0
DA:17,0
DA:19,1
DA:21,1
DA:22,1
DA:25,0
DA:29,0
LF:7
LH:3
end_of_record
TN:
SF:/home/atcsol/eclipse-workspace_FIE/asw_pus_freertos_prac9/llsw/freertos_osswr/Source/event_groups.c
FN:139,174,xEventGroupCreate
FN:179,303,xEventGroupSync
FN:306,463,xEventGroupWaitBits
FN:466,495,xEventGroupClearBits
FN:518,535,xEventGroupGetBitsFromISR
FN:538,635,xEventGroupSetBits
FN:638,685,vEventGroupDelete
FN:736,747,vEventGroupSetBitsCallback
FN:752,763,vEventGroupClearBitsCallback
FN:766,800,prvTestWaitCondition
FNDA:0,xEventGroupCreate
FNDA:0,xEventGroupSync
FNDA:0,xEventGroupWaitBits
FNDA:0,xEventGroupClearBits
FNDA:0,xEventGroupGetBitsFromISR
FNDA:0,xEventGroupSetBits
FNDA:0,vEventGroupDelete
FNDA:0,vEventGroupSetBitsCallback
FNDA:0,vEventGroupClearBitsCallback
FNDA:0,prvTestWaitCondition
FNF:10
FNH:0
DA:139,0
DA:148,0
DA:150,0
DA:152,0
DA:153,0
DA:173,0
DA:179,0
DA:185,0
DA:187,0
DA:191,0
DA:192,0
DA:195,0
DA:199,0
DA:201,0
DA:203,0
DA:205,0
DA:208,0
DA:212,0
DA:214,0
DA:218,0
DA:225,0
DA:231,0
DA:237,0
DA:238,0
DA:242,0
DA:244,0
DA:246,0
DA:248,0
DA:259,0
DA:261,0
DA:264,0
DA:266,0
DA:272,0
DA:274,0
DA:281,0
DA:283,0
DA:292,0
DA:302,0
DA:306,0
DA:312,0
DA:313,0
DA:315,0
DA:321,0
DA:322,0
DA:323,0
DA:326,0
DA:330,0
DA:332,0
DA:335,0
DA:337,0
DA:341,0
DA:342,0
DA:345,0
DA:347,0
DA:354,0
DA:358,0
DA:359,0
DA:367,0
DA:369,0
DA:376,0
DA:378,0
DA:388,0
DA:393,0
DA:398,0
DA:400,0
DA:402,0
DA:404,0
DA:415,0
DA:417,0
DA:419,0
DA:422,0
DA:426,0
DA:428,0
DA:430,0
DA:442,0
DA:444,0
DA:452,0
DA:462,0
DA:466,0
DA:469,0
DA:476,0
DA:477,0
DA:479,0
DA:485,0
DA:488,0
DA:490,0
DA:494,0
DA:518,0
DA:521,0
DA:526,0
DA:528,0
DA:530,0
DA:534,0
DA:538,0
DA:545,0
DA:546,0
DA:547,0
DA:553,0
DA:554,0
DA:556,0
DA:557,0
DA:558,0
DA:562,0
DA:565,0
DA:568,0
DA:570,0
DA:571,0
DA:572,0
DA:575,0
DA:576,0
DA:578,0
DA:581,0
DA:583,0
DA:590,0
DA:593,0
DA:600,0
DA:603,0
DA:605,0
DA:617,0
DA:623,0
DA:628,0
DA:630,0
DA:634,0
DA:638,0
DA:640,0
DA:645,0
DA:647,0
DA:649,0
DA:653,0
DA:657,0
DA:658,0
DA:661,0
DA:667,0
DA:685,0
DA:736,0
DA:744,0
DA:747,0
DA:752,0
DA:760,0
DA:763,0
DA:766,0
DA:770,0
DA:772,0
DA:776,0
DA:778,0
DA:789,0
DA:791,0
DA:799,0
LF:148
LH:0
end_of_record
TN:
SF:/home/atcsol/eclipse-workspace_FIE/asw_pus_freertos_prac9/llsw/freertos_osswr/Source/list.c
FN:105,136,vListInsertEnd
FN:139,211,vListInsert
FN:215,245,uxListRemove
FN:49,86,vListInitialise
FN:89,102,vListInitialiseItem
FNDA:0,vListInsertEnd
FNDA:1091,vListInsert
FNDA:1294,uxListRemove
FNDA:147,vListInitialise
FNDA:24,vListInitialiseItem
FNF:5
FNH:4
DA:49,147
DA:56,147
DA:62,147
DA:66,147
DA:67,147
DA:78,147
DA:86,147
DA:89,24
DA:94,24
DA:102,24
DA:105,0
DA:108,0
DA:121,0
DA:122,0
DA:127,0
DA:128,0
DA:131,0
DA:133,0
DA:136,0
DA:139,1091
DA:143,1091
DA:161,1091
DA:163,0
DA:192,1326
DA:199,1091
DA:200,1091
DA:201,1091
DA:202,1091
DA:206,1091
DA:208,1091
DA:211,1091
DA:215,1294
DA:219,1294
DA:223,1294
DA:224,1294
DA:230,1294
DA:232,1091
DA:239,1294
DA:240,1294
DA:244,1294
LF:40
LH:30
end_of_record
TN:
SF:/home/atcsol/eclipse-workspace_FIE/asw_pus_freertos_prac9/llsw/freertos_osswr/Source/portable/ThirdParty/GCC/Posix/MemMang/heap_3.c
FN:121,132,vPortFree
FN:96,118,pvPortMalloc
FNDA:6,vPortFree
FNDA:84,pvPortMalloc
FNF:2
FNH:2
DA:96,84
DA:100,84
DA:102,84
DA:105,84
DA:117,84
DA:121,6
DA:123,6
DA:125,6
DA:127,6
DA:130,6
DA:132,6
LF:11
LH:11
end_of_record
TN:
SF:/home/atcsol/eclipse-workspace_FIE/asw_pus_freertos_prac9/llsw/freertos_osswr/Source/portable/ThirdParty/GCC/Posix/port.c
FN:131,136,prvFatalError
FN:139,146,prvPortSetCurrentThreadName
FN:152,210,pxPortInitialiseStack
FN:213,219,vPortStartFirstTask
FN:225,274,xPortStartScheduler
FN:277,293,vPortEndScheduler
FN:296,304,vPortEnterCritical
FN:307,316,vPortExitCritical
FN:319,331,prvPortYieldFromISR
FN:334,341,vPortYield
FN:344,347,vPortDisableInterrupts
FN:350,353,vPortEnableInterrupts
FN:356,361,xPortSetInterruptMask
FN:364,367,vPortClearInterruptMask
FN:370,377,prvGetTimeNs
FN:384,402,prvTimerTickHandler
FN:409,415,prvSetupTimerInterrupt
FN:418,457,vPortSystemTickHandler
FN:460,468,vPortThreadDying
FN:471,482,vPortCancelThread
FN:485,509,prvWaitForStart
FN:512,539,prvSwitchThread
FN:542,559,prvSuspendSelf
FN:563,569,prvResumeThread
FN:572,607,prvSetupSignalsAndSchedulerPolicy
FN:610,617,ulPortGetRunTime
FN:96,101,prvGetThreadFromTask
FNDA:0,prvFatalError
FNDA:14,prvPortSetCurrentThreadName
FNDA:12,pxPortInitialiseStack
FNDA:1,vPortStartFirstTask
FNDA:1,xPortStartScheduler
FNDA:0,vPortEndScheduler
FNDA:16040,vPortEnterCritical
FNDA:16029,vPortExitCritical
FNDA:1116,prvPortYieldFromISR
FNDA:1116,vPortYield
FNDA:15813,vPortDisableInterrupts
FNDA:15814,vPortEnableInterrupts
FNDA:0,xPortSetInterruptMask
FNDA:0,vPortClearInterruptMask
FNDA:1,prvGetTimeNs
FNDA:1,prvTimerTickHandler
FNDA:1,prvSetupTimerInterrupt
FNDA:10001,vPortSystemTickHandler
FNDA:0,vPortThreadDying
FNDA:0,vPortCancelThread
FNDA:12,prvWaitForStart
FNDA:11117,prvSwitchThread
FNDA:1228,prvSuspendSelf
FNDA:1217,prvResumeThread
FNDA:1,prvSetupSignalsAndSchedulerPolicy
FNDA:11117,ulPortGetRunTime
FNDA:32236,prvGetThreadFromTask
FNF:27
FNH:21
DA:96,32236
DA:98,32236
DA:100,32236
DA:131,0
DA:134,0
DA:135,0
DA:139,14
DA:144,14
DA:146,14
DA:152,12
DA:162,12
DA:167,12
DA:168,12
DA:174,12
DA:180,12
DA:181,12
DA:182,12
DA:185,12
DA:187,12
DA:188,12
DA:190,12
DA:192,0
DA:195,12
DA:197,12
DA:199,12
DA:202,12
DA:204,0
DA:207,12
DA:209,12
DA:213,1
DA:215,1
DA:218,1
DA:219,1
DA:225,1
DA:230,1
DA:231,1
DA:235,1
DA:242,1
DA:243,1
DA:244,1
DA:247,1
DA:250,1
DA:252,1
DA:259,0
DA:267,0
DA:271,0
DA:273,0
DA:277,0
DA:282,0
DA:283,0
DA:286,0
DA:287,0
DA:290,0
DA:291,0
DA:292,0
DA:293,0
DA:296,16040
DA:298,16040
DA:300,15812
DA:303,16040
DA:304,16040
DA:307,16029
DA:309,16029
DA:312,16029
DA:314,15802
DA:316,16029
DA:319,1116
DA:324,1116
DA:326,1116
DA:328,1116
DA:330,1116
DA:331,1106
DA:334,1116
DA:336,1116
DA:338,1116
DA:340,1106
DA:341,1106
DA:344,15813
DA:346,15813
DA:347,15813
DA:350,15814
DA:352,15814
DA:353,15814
DA:356,0
DA:360,0
DA:364,0
DA:367,0
DA:370,1
DA:374,1
DA:376,1
DA:384,1
DA:388,1
DA:390,10001
DA:396,10001
DA:397,10001
DA:398,10001
DA:401,0
DA:409,1
DA:411,1
DA:412,1
DA:414,1
DA:415,1
DA:418,10001
DA:427,10001
DA:430,10001
DA:441,10001
DA:449,10001
DA:451,10001
DA:453,10001
DA:456,10000
DA:457,10000
DA:460,0
DA:463,0
DA:467,0
DA:468,0
DA:471,0
DA:473,0
DA:478,0
DA:479,0
DA:480,0
DA:481,0
DA:482,0
DA:485,12
DA:487,12
DA:489,12
DA:492,12
DA:493,12
DA:496,12
DA:499,12
DA:506,0
DA:512,11117
DA:517,11117
DA:526,1216
DA:528,1216
DA:530,1216
DA:532,0
DA:535,1216
DA:537,1205
DA:539,11106
DA:542,1228
DA:557,1228
DA:558,1217
DA:559,1217
DA:563,1217
DA:565,1217
DA:567,1217
DA:569,1217
DA:572,1
DA:577,1
DA:580,1
DA:584,1
DA:593,1
DA:597,1
DA:598,1
DA:599,1
DA:601,1
DA:603,1
DA:605,0
DA:607,1
DA:610,11117
DA:614,11117
DA:616,11117
LF:162
LH:125
end_of_record
TN:
SF:/home/atcsol/eclipse-workspace_FIE/asw_pus_freertos_prac9/llsw/freertos_osswr/Source/portable/ThirdParty/GCC/Posix/utils/wait_for_event.c
FN:42,50,event_create
FN:52,57,event_delete
FN:59,71,event_wait
FN:72,96,event_wait_timed
FN:98,104,event_signal
FNDA:12,event_create
FNDA:0,event_delete
FNDA:1228,event_wait
FNDA:0,event_wait_timed
FNDA:1217,event_signal
FNF:5
FNH:3
DA:42,12
DA:44,12
DA:46,12
DA:47,12
DA:48,12
DA:49,12
DA:52,0
DA:54,0
DA:55,0
DA:56,0
DA:57,0
DA:59,1228
DA:61,1228
DA:63,2381
DA:65,1164
DA:68,1217
DA:69,1217
DA:70,1217
DA:72,0
DA:76,0
DA:78,0
DA:79,0
DA:80,0
DA:81,0
DA:83,0
DA:85,0
DA:87,0
DA:89,0
DA:93,0
DA:94,0
DA:95,0
DA:98,1217
DA:100,1217
DA:101,1217
DA:102,1217
DA:103,1217
DA:104,1217
LF:37
LH:19
end_of_record
TN:
SF:/home/atcsol/eclipse-workspace_FIE/asw_pus_freertos_prac9/llsw/freertos_osswr/Source/queue.c
FN:1157,1323,xQueueGenericSendFromISR
FN:1326,1493,xQueueGiveFromISR
FN:1496,1643,xQueueReceive
FN:1646,1868,xQueueSemaphoreTake
FN:1871,2026,xQueuePeek
FN:2029,2123,xQueueReceiveFromISR
FN:2126,2182,xQueuePeekFromISR
FN:2185,2202,uxQueueMessagesWaiting
FN:2205,2223,uxQueueSpacesAvailable
FN:2226,2239,uxQueueMessagesWaitingFromISR
FN:2242,2285,vQueueDelete
FN:2331,2338,uxQueueGetQueueItemSize
FN:2341,2348,uxQueueGetQueueLength
FN:2353,2373,prvGetDisinheritPriorityAfterTimeout
FN:2378,2458,prvCopyDataToQueue
FN:2461,2479,prvCopyDataFromQueue
FN:2482,2599,prvUnlockQueue
FN:2602,2620,prvIsQueueEmpty
FN:2623,2644,xQueueIsQueueEmptyFromISR
FN:2647,2665,prvIsQueueFull
FN:2668,2689,xQueueIsQueueFullFromISR
FN:2997,3041,vQueueAddToRegistry
FN:303,371,xQueueGenericReset
FN:3048,3076,pcQueueGetName
FN:3083,3113,vQueueUnregisterQueue
FN:3120,3157,vQueueWaitForMessageRestricted
FN:3164,3175,xQueueCreateSet
FN:3182,3213,xQueueAddToSet
FN:3220,3254,xQueueRemoveFromSet
FN:3261,3273,xQueueSelectFromSet
FN:3280,3291,xQueueSelectFromSetFromISR
FN:3298,3350,prvNotifyQueueSetContainer
FN:502,561,xQueueGenericCreate
FN:566,609,prvInitialiseNewQueue
FN:614,637,prvInitialiseMutex
FN:644,657,xQueueCreateMutex
FN:689,719,xQueueGetMutexHolder
FN:726,749,xQueueGetMutexHolderFromISR
FN:756,808,xQueueGiveMutexRecursive
FN:815,855,xQueueTakeMutexRecursive
FN:902,934,xQueueCreateCountingSemaphore
FN:939,1154,xQueueGenericSend
FNDA:0,xQueueGenericSendFromISR
FNDA:0,xQueueGiveFromISR
FNDA:0,xQueueReceive
FNDA:3767,xQueueSemaphoreTake
FNDA:0,xQueuePeek
FNDA:0,xQueueReceiveFromISR
FNDA:0,xQueuePeekFromISR
FNDA:0,uxQueueMessagesWaiting
FNDA:0,uxQueueSpacesAvailable
FNDA:0,uxQueueMessagesWaitingFromISR
FNDA:6,vQueueDelete
FNDA:0,uxQueueGetQueueItemSize
FNDA:0,uxQueueGetQueueLength
FNDA:0,prvGetDisinheritPriorityAfterTimeout
FNDA:3363,prvCopyDataToQueue
FNDA:0,prvCopyDataFromQueue
FNDA:1056,prvUnlockQueue
FNDA:1055,prvIsQueueEmpty
FNDA:0,xQueueIsQueueEmptyFromISR
FNDA:0,prvIsQueueFull
FNDA:0,xQueueIsQueueFullFromISR
FNDA:1,vQueueAddToRegistry
FNDA:60,xQueueGenericReset
FNDA:0,pcQueueGetName
FNDA:6,vQueueUnregisterQueue
FNDA:1,vQueueWaitForMessageRestricted
FNDA:0,xQueueCreateSet
FNDA:0,xQueueAddToSet
FNDA:0,xQueueRemoveFromSet
FNDA:0,xQueueSelectFromSet
FNDA:0,xQueueSelectFromSetFromISR
FNDA:0,prvNotifyQueueSetContainer
FNDA:60,xQueueGenericCreate
FNDA:60,prvInitialiseNewQueue
FNDA:16,prvInitialiseMutex
FNDA:16,xQueueCreateMutex
FNDA:0,xQueueGetMutexHolder
FNDA:0,xQueueGetMutexHolderFromISR
FNDA:0,xQueueGiveMutexRecursive
FNDA:0,xQueueTakeMutexRecursive
FNDA:42,xQueueCreateCountingSemaphore
FNDA:3363,xQueueGenericSend
FNF:42
FNH:15
DA:303,60
DA:306,60
DA:307,60
DA:311,60
DA:313,60
DA:314,60
DA:316,60
DA:318,60
DA:320,60
DA:321,60
DA:322,60
DA:323,60
DA:324,60
DA:325,60
DA:327,60
DA:334,0
DA:336,0
DA:338,0
DA:353,60
DA:354,60
DA:357,60
DA:361,0
DA:364,60
DA:370,60
DA:502,60
DA:506,60
DA:512,60
DA:514,60
DA:516,60
DA:521,60
DA:526,60
DA:528,60
DA:532,60
DA:533,60
DA:544,60
DA:554,0
DA:560,60
DA:566,60
DA:576,60
DA:582,59
DA:587,1
DA:592,60
DA:593,60
DA:594,60
DA:604,60
DA:609,60
DA:614,16
DA:616,16
DA:622,16
DA:623,16
DA:626,16
DA:631,16
DA:637,16
DA:644,16
DA:647,16
DA:651,16
DA:652,16
DA:656,16
DA:689,0
DA:692,0
DA:696,0
DA:703,0
DA:705,0
DA:707,0
DA:711,0
DA:714,0
DA:718,0
DA:726,0
DA:732,0
DA:737,0
DA:739,0
DA:743,0
DA:748,0
DA:756,0
DA:759,0
DA:763,0
DA:771,0
DA:780,0
DA:783,0
DA:787,0
DA:794,0
DA:800,0
DA:807,0
DA:815,0
DA:819,0
DA:823,0
DA:830,0
DA:832,0
DA:833,0
DA:837,0
DA:842,0
DA:844,0
DA:854,0
DA:902,42
DA:905,42
DA:909,42
DA:912,42
DA:914,42
DA:916,42
DA:927,0
DA:933,42
DA:939,3363
DA:944,3363
DA:946,3363
DA:950,3363
DA:951,3363
DA:952,3363
DA:955,3363
DA:961,3363
DA:967,3363
DA:973,3363
DA:975,3363
DA:977,3363
DA:979,0
DA:986,0
DA:991,0
DA:1002,3363
DA:1004,649
DA:1010,26
DA:1017,2714
DA:1023,0
DA:1067,3362
DA:1071,3362
DA:1075,0
DA:1079,0
DA:1086,0
DA:1088,0
DA:1092,0
DA:1093,0
DA:1102,0
DA:1107,0
DA:1108,0
DA:1111,0
DA:1113,0
DA:1116,0
DA:1123,0
DA:1130,0
DA:1132,0
DA:1138,0
DA:1139,0
DA:1145,0
DA:1146,0
DA:1151,0
DA:1157,0
DA:1164,0
DA:1168,0
DA:1169,0
DA:1170,0
DA:1193,0
DA:1195,0
DA:1196,0
DA:1197,0
DA:1198,0
DA:1207,0
DA:1211,0
DA:1215,0
DA:1217,0
DA:1224,0
DA:1229,0
DA:1231,0
DA:1245,0
DA:1247,0
DA:1251,0
DA:1253,0
DA:1307,0
DA:1310,0
DA:1315,0
DA:1318,0
DA:1322,0
DA:1326,0
DA:1331,0
DA:1341,0
DA:1345,0
DA:1350,0
DA:1368,0
DA:1370,0
DA:1375,0
DA:1377,0
DA:1387,0
DA:1391,0
DA:1395,0
DA:1397,0
DA:1402,0
DA:1404,0
DA:1418,0
DA:1420,0
DA:1424,0
DA:1426,0
DA:1477,0
DA:1480,0
DA:1485,0
DA:1488,0
DA:1492,0
DA:1496,0
DA:1500,0
DA:1502,0
DA:1507,0
DA:1511,0
DA:1516,0
DA:1522,0
DA:1524,0
DA:1528,0
DA:1531,0
DA:1533,0
DA:1538,0
DA:1540,0
DA:1542,0
DA:1554,0
DA:1558,0
DA:1562,0
DA:1566,0
DA:1571,0
DA:1573,0
DA:1577,0
DA:1578,0
DA:1587,0
DA:1592,0
DA:1593,0
DA:1596,0
DA:1600,0
DA:1603,0
DA:1604,0
DA:1606,0
DA:1608,0
DA:1619,0
DA:1620,0
DA:1627,0
DA:1628,0
DA:1630,0
DA:1635,0
DA:1646,3767
DA:1649,3767
DA:1651,3767
DA:1654,3767
DA:1660,3767
DA:1664,3767
DA:1669,3767
DA:1675,4615
DA:1679,4615
DA:1683,4615
DA:1689,3345
DA:1693,3345
DA:1697,2488
DA:1708,3345
DA:1710,0
DA:1712,0
DA:1724,3345
DA:1728,3345
DA:1732,1270
DA:1736,215
DA:1741,215
DA:1743,1055
DA:1747,855
DA:1748,855
DA:1757,1055
DA:1762,1055
DA:1763,1055
DA:1766,1055
DA:1772,855
DA:1778,855
DA:1780,1
DA:1782,1
DA:1784,1
DA:1793,855
DA:1794,855
DA:1796,855
DA:1798,855
DA:1809,0
DA:1810,0
DA:1816,200
DA:1817,200
DA:1823,200
DA:1830,200
DA:1832,0
DA:1841,0
DA:1850,0
DA:1852,0
DA:1860,200
DA:1871,0
DA:1875,0
DA:1878,0
DA:1883,0
DA:1887,0
DA:1892,0
DA:1898,0
DA:1900,0
DA:1904,0
DA:1909,0
DA:1911,0
DA:1915,0
DA:1919,0
DA:1921,0
DA:1924,0
DA:1936,0
DA:1940,0
DA:1944,0
DA:1948,0
DA:1953,0
DA:1955,0
DA:1960,0
DA:1961,0
DA:1970,0
DA:1975,0
DA:1976,0
DA:1979,0
DA:1983,0
DA:1986,0
DA:1987,0
DA:1989,0
DA:1991,0
DA:2002,0
DA:2003,0
DA:2010,0
DA:2011,0
DA:2013,0
DA:2018,0
DA:2029,0
DA:2035,0
DA:2039,0
DA:2040,0
DA:2058,0
DA:2060,0
DA:2063,0
DA:2065,0
DA:2069,0
DA:2070,0
DA:2076,0
DA:2078,0
DA:2080,0
DA:2084,0
DA:2086,0
DA:2107,0
DA:2110,0
DA:2114,0
DA:2118,0
DA:2122,0
DA:2126,0
DA:2132,0
DA:2136,0
DA:2137,0
DA:2138,0
DA:2156,0
DA:2159,0
DA:2165,0
DA:2166,0
DA:2167,0
DA:2169,0
DA:2173,0
DA:2177,0
DA:2181,0
DA:2185,0
DA:2191,0
DA:2193,0
DA:2195,0
DA:2197,0
DA:2201,0
DA:2205,0
DA:2208,0
DA:2212,0
DA:2214,0
DA:2216,0
DA:2218,0
DA:2222,0
DA:2226,0
DA:2229,0
DA:2233,0
DA:2234,0
DA:2238,0
DA:2242,6
DA:2244,6
DA:2248,6
DA:2253,6
DA:2261,6
DA:2285,6
DA:2331,0
DA:2337,0
DA:2341,0
DA:2347,0
DA:2353,0
DA:2363,0
DA:2365,0
DA:2369,0
DA:2372,0
DA:2378,3363
DA:2382,3363
DA:2387,3363
DA:2389,3363
DA:2393,3363
DA:2396,2504
DA:2397,2504
DA:2406,0
DA:2408,0
DA:2409,0
DA:2411,0
DA:2413,0
DA:2422,0
DA:2423,0
DA:2425,0
DA:2427,0
DA:2434,0
DA:2436,0
DA:2442,0
DA:2455,3363
DA:2457,3363
DA:2461,0
DA:2464,0
DA:2466,0
DA:2468,0
DA:2470,0
DA:2477,0
DA:2479,0
DA:2482,1056
DA:2490,1056
DA:2492,1056
DA:2495,1056
DA:2501,0
DA:2503,0
DA:2508,0
DA:2520,0
DA:2522,0
DA:2526,0
DA:2535,0
DA:2563,0
DA:2566,1056
DA:2568,1056
DA:2571,1056
DA:2573,1056
DA:2575,1056
DA:2577,0
DA:2579,0
DA:2581,0
DA:2588,0
DA:2592,0
DA:2596,1056
DA:2598,1056
DA:2599,1056
DA:2602,1055
DA:2606,1055
DA:2608,1055
DA:2610,1055
DA:2614,0
DA:2617,1055
DA:2619,1055
DA:2623,0
DA:2626,0
DA:2630,0
DA:2632,0
DA:2634,0
DA:2638,0
DA:2643,0
DA:2647,0
DA:2651,0
DA:2653,0
DA:2655,0
DA:2659,0
DA:2662,0
DA:2664,0
DA:2668,0
DA:2671,0
DA:2675,0
DA:2677,0
DA:2679,0
DA:2683,0
DA:2688,0
DA:2997,1
DA:3001,1
DA:3005,1
DA:3007,1
DA:3011,21
DA:3014,20
DA:3016,0
DA:3017,0
DA:3020,20
DA:3022,1
DA:3031,1
DA:3034,1
DA:3035,1
DA:3041,1
DA:3048,0
DA:3051,0
DA:3055,0
DA:3060,0
DA:3062,0
DA:3064,0
DA:3065,0
DA:3075,0
DA:3083,6
DA:3089,6
DA:3093,126
DA:3095,120
DA:3098,0
DA:3103,0
DA:3104,0
DA:3113,6
DA:3120,1
DA:3124,1
DA:3142,1
DA:3144,1
DA:3147,1
DA:3154,1
DA:3157,1
DA:3164,0
DA:3170,0
DA:3174,0
DA:3182,0
DA:3189,0
DA:3191,0
DA:3194,0
DA:3196,0
DA:3200,0
DA:3204,0
DA:3205,0
DA:3208,0
DA:3212,0
DA:3220,0
DA:3224,0
DA:3228,0
DA:3231,0
DA:3233,0
DA:3238,0
DA:3242,0
DA:3245,0
DA:3247,0
DA:3248,0
DA:3253,0
DA:3261,0
DA:3264,0
DA:3268,0
DA:3272,0
DA:3280,0
DA:3282,0
DA:3286,0
DA:3290,0
DA:3298,0
DA:3300,0
DA:3301,0
DA:3308,0
DA:3309,0
DA:3311,0
DA:3313,0
DA:3318,0
DA:3320,0
DA:3322,0
DA:3324,0
DA:3327,0
DA:3341,0
DA:3349,0
LF:547
LH:175
end_of_record
TN:
SF:/home/atcsol/eclipse-workspace_FIE/asw_pus_freertos_prac9/llsw/freertos_osswr/Source/stream_buffer.c
FN:1074,1115,xStreamBufferNextMessageLengthBytes
FN:1118,1175,xStreamBufferReceiveFromISR
FN:1178,1230,prvReadMessageFromBuffer
FN:1233,1258,xStreamBufferIsEmpty
FN:1261,1297,xStreamBufferIsFull
FN:1300,1333,xStreamBufferSendCompletedFromISR
FN:1336,1369,xStreamBufferReceiveCompletedFromISR
FN:1372,1415,prvWriteBytesToBuffer
FN:1418,1459,prvReadBytesFromBuffer
FN:1462,1480,prvBytesInBuffer
FN:1483,1528,prvInitialiseNewStreamBuffer
FN:1531,1542,uxStreamBufferGetStreamBufferNotificationIndex
FN:1545,1564,vStreamBufferSetStreamBufferNotificationIndex
FN:324,408,xStreamBufferGenericCreate
FN:538,572,vStreamBufferDelete
FN:575,633,xStreamBufferReset
FN:636,667,xStreamBufferSetTriggerLevel
FN:670,704,xStreamBufferSpacesAvailable
FN:707,721,xStreamBufferBytesAvailable
FN:724,856,xStreamBufferSend
FN:859,910,xStreamBufferSendFromISR
FN:913,963,prvWriteMessageToBuffer
FN:966,1071,xStreamBufferReceive
FNDA:0,xStreamBufferNextMessageLengthBytes
FNDA:0,xStreamBufferReceiveFromISR
FNDA:0,prvReadMessageFromBuffer
FNDA:0,xStreamBufferIsEmpty
FNDA:0,xStreamBufferIsFull
FNDA:0,xStreamBufferSendCompletedFromISR
FNDA:0,xStreamBufferReceiveCompletedFromISR
FNDA:0,prvWriteBytesToBuffer
FNDA:0,prvReadBytesFromBuffer
FNDA:0,prvBytesInBuffer
FNDA:0,prvInitialiseNewStreamBuffer
FNDA:0,uxStreamBufferGetStreamBufferNotificationIndex
FNDA:0,vStreamBufferSetStreamBufferNotificationIndex
FNDA:0,xStreamBufferGenericCreate
FNDA:0,vStreamBufferDelete
FNDA:0,xStreamBufferReset
FNDA:0,xStreamBufferSetTriggerLevel
FNDA:0,xStreamBufferSpacesAvailable
FNDA:0,xStreamBufferBytesAvailable
FNDA:0,xStreamBufferSend
FNDA:0,xStreamBufferSendFromISR
FNDA:0,prvWriteMessageToBuffer
FNDA:0,xStreamBufferReceive
FNF:23
FNH:0
DA:324,0
DA:339,0
DA:342,0
DA:343,0
DA:348,0
DA:349,0
DA:352,0
DA:356,0
DA:358,0
DA:369,0
DA:371,0
DA:372,0
DA:376,0
DA:379,0
DA:384,0
DA:407,0
DA:538,0
DA:540,0
DA:544,0
DA:548,0
DA:554,0
DA:568,0
DA:572,0
DA:575,0
DA:577,0
DA:578,0
DA:579,0
DA:587,0
DA:598,0
DA:600,0
DA:609,0
DA:613,0
DA:625,0
DA:628,0
DA:632,0
DA:636,0
DA:639,0
DA:644,0
DA:647,0
DA:649,0
DA:654,0
DA:656,0
DA:657,0
DA:661,0
DA:666,0
DA:670,0
DA:672,0
DA:678,0
DA:685,0
DA:686,0
DA:687,0
DA:688,0
DA:690,0
DA:692,0
DA:694,0
DA:703,0
DA:707,0
DA:709,0
DA:714,0
DA:716,0
DA:720,0
DA:724,0
DA:729,0
DA:730,0
DA:731,0
DA:733,0
DA:737,0
DA:738,0
DA:742,0
DA:748,0
DA:750,0
DA:753,0
DA:757,0
DA:761,0
DA:773,0
DA:775,0
DA:783,0
DA:785,0
DA:791,0
DA:793,0
DA:795,0
DA:798,0
DA:801,0
DA:802,0
DA:806,0
DA:807,0
DA:810,0
DA:813,0
DA:814,0
DA:815,0
DA:822,0
DA:824,0
DA:831,0
DA:833,0
DA:838,0
DA:840,0
DA:855,0
DA:859,0
DA:864,0
DA:866,0
DA:870,0
DA:871,0
DA:877,0
DA:879,0
DA:886,0
DA:887,0
DA:889,0
DA:892,0
DA:894,0
DA:909,0
DA:913,0
DA:919,0
DA:922,0
DA:927,0
DA:930,0
DA:932,0
DA:937,0
DA:942,0
DA:950,0
DA:953,0
DA:959,0
DA:962,0
DA:966,0
DA:971,0
DA:972,0
DA:976,0
DA:977,0
DA:984,0
DA:986,0
DA:990,0
DA:993,0
DA:997,0
DA:999,0
DA:1006,0
DA:1009,0
DA:1012,0
DA:1013,0
DA:1020,0
DA:1022,0
DA:1026,0
DA:1027,0
DA:1030,0
DA:1039,0
DA:1047,0
DA:1049,0
DA:1052,0
DA:1055,0
DA:1070,0
DA:1074,0
DA:1076,0
DA:1082,0
DA:1085,0
DA:1087,0
DA:1089,0
DA:1094,0
DA:1095,0
DA:1103,0
DA:1104,0
DA:1109,0
DA:1114,0
DA:1118,0
DA:1123,0
DA:1124,0
DA:1128,0
DA:1129,0
DA:1136,0
DA:1138,0
DA:1142,0
DA:1145,0
DA:1152,0
DA:1154,0
DA:1157,0
DA:1159,0
DA:1174,0
DA:1178,0
DA:1185,0
DA:1187,0
DA:1191,0
DA:1192,0
DA:1196,0
DA:1200,0
DA:1203,0
DA:1214,0
DA:1218,0
DA:1220,0
DA:1226,0
DA:1229,0
DA:1233,0
DA:1235,0
DA:1241,0
DA:1244,0
DA:1246,0
DA:1248,0
DA:1252,0
DA:1257,0
DA:1261,0
DA:1265,0
DA:1269,0
DA:1275,0
DA:1277,0
DA:1281,0
DA:1285,0
DA:1287,0
DA:1291,0
DA:1296,0
DA:1300,0
DA:1303,0
DA:1309,0
DA:1311,0
DA:1313,0
DA:1315,0
DA:1320,0
DA:1321,0
DA:1325,0
DA:1328,0
DA:1332,0
DA:1336,0
DA:1339,0
DA:1345,0
DA:1347,0
DA:1349,0
DA:1351,0
DA:1356,0
DA:1357,0
DA:1361,0
DA:1364,0
DA:1368,0
DA:1372,0
DA:1379,0
DA:1384,0
DA:1387,0
DA:1388,0
DA:1392,0
DA:1395,0
DA:1396,0
DA:1403,0
DA:1405,0
DA:1407,0
DA:1414,0
DA:1418,0
DA:1425,0
DA:1430,0
DA:1434,0
DA:1435,0
DA:1436,0
DA:1440,0
DA:1443,0
DA:1451,0
DA:1453,0
DA:1455,0
DA:1458,0
DA:1462,0
DA:1467,0
DA:1468,0
DA:1470,0
DA:1472,0
DA:1479,0
DA:1483,0
DA:1500,0
DA:1504,0
DA:1505,0
DA:1506,0
DA:1507,0
DA:1508,0
DA:1509,0
DA:1528,0
DA:1531,0
DA:1533,0
DA:1537,0
DA:1541,0
DA:1545,0
DA:1548,0
DA:1552,0
DA:1555,0
DA:1556,0
DA:1559,0
DA:1561,0
DA:1564,0
LF:278
LH:0
end_of_record
TN:
SF:/home/atcsol/eclipse-workspace_FIE/asw_pus_freertos_prac9/llsw/freertos_osswr/Source/tasks.c
FN:1619,1714,prvCreateTask
FN:1717,1751,xTaskCreate
FN:1792,2013,prvInitialiseNewTask
FN:2018,2092,prvAddNewTaskToReadyList
FN:2190,2335,vTaskDelete
FN:2342,2427,xTaskDelayUntil
FN:2434,2477,vTaskDelay
FN:2484,2609,eTaskGetState
FN:2616,2635,uxTaskPriorityGet
FN:2642,2680,uxTaskPriorityGetFromISR
FN:2687,2706,uxTaskBasePriorityGet
FN:2713,2751,uxTaskBasePriorityGetFromISR
FN:2758,2965,vTaskPrioritySet
FN:3114,3269,vTaskSuspend
FN:3276,3339,prvTaskIsTaskSuspended
FN:3346,3399,vTaskResume
FN:3407,3496,xTaskResumeFromISR
FN:3501,3651,prvCreateIdleTasks
FN:3655,3755,vTaskStartScheduler
FN:3758,3798,vTaskEndScheduler
FN:3801,3878,vTaskSuspendAll
FN:3946,4093,xTaskResumeAll
FN:4096,4112,xTaskGetTickCount
FN:4115,4147,xTaskGetTickCountFromISR
FN:4150,4159,uxTaskGetNumberOfTasks
FN:4162,4176,pcTaskGetName
FN:4182,4252,prvSearchForNameWithinSingleList
FN:4327,4388,xTaskGetHandle
FN:4529,4540,xTaskGetIdleTaskHandle
FN:4543,4557,xTaskGetIdleTaskHandleForCore
FN:4610,4635,xTaskCatchUpTicks
FN:4640,4729,xTaskAbortDelay
FN:4734,4985,xTaskIncrementTick
FN:4990,5017,vTaskSetApplicationTaskTag
FN:5024,5045,xTaskGetApplicationTaskTag
FN:5052,5074,xTaskGetApplicationTaskTagFromISR
FN:5081,5111,xTaskCallApplicationTaskHook
FN:5117,5200,vTaskSwitchContext
FN:5304,5330,vTaskPlaceOnEventList
FN:5333,5360,vTaskPlaceOnUnorderedEventList
FN:5365,5397,vTaskPlaceOnEventListRestricted
FN:5402,5492,xTaskRemoveFromEventList
FN:5495,5564,vTaskRemoveFromUnorderedEventList
FN:5567,5580,vTaskSetTimeOutState
FN:5583,5592,vTaskInternalSetTimeOutState
FN:5595,5661,xTaskCheckForTimeOut
FN:5664,5672,vTaskMissedYield
FN:5809,5940,prvIdleTask
FN:6072,6101,prvInitialiseTaskLists
FN:6104,6177,prvCheckTasksWaitingTermination
FN:6467,6515,prvDeleteTCB
FN:6520,6538,prvResetNextTaskUnblockTime
FN:6544,6558,xTaskGetCurrentTaskHandle
FN:6579,6597,xTaskGetCurrentTaskHandleForCore
FN:6604,6637,xTaskGetSchedulerState
FN:6644,6740,xTaskPriorityInherit
FN:6747,6834,xTaskPriorityDisinherit
FN:6841,6954,vTaskPriorityDisinheritAfterTimeout
FN:7633,7648,uxTaskResetEventItemValue
FN:7653,7671,pvTaskIncrementMutexHeldCount
FN:7678,7774,ulTaskGenericNotifyTake
FN:7781,7889,xTaskGenericNotifyWait
FN:7896,8009,xTaskGenericNotify
FN:8016,8172,xTaskGenericNotifyFromISR
FN:8179,8285,vTaskGenericNotifyGiveFromISR
FN:8292,8323,xTaskGenericNotifyStateClear
FN:8330,8357,ulTaskGenericNotifyValueClear
FN:8364,8375,ulTaskGetRunTimeCounter
FN:8382,8408,ulTaskGetRunTimePercent
FN:8415,8430,ulTaskGetIdleRunTimeCounter
FN:8437,8468,ulTaskGetIdleRunTimePercent
FN:8473,8589,prvAddCurrentTaskToDelayedList
FNDA:12,prvCreateTask
FNDA:12,xTaskCreate
FNDA:12,prvInitialiseNewTask
FNDA:12,prvAddNewTaskToReadyList
FNDA:0,vTaskDelete
FNDA:0,xTaskDelayUntil
FNDA:34,vTaskDelay
FNDA:0,eTaskGetState
FNDA:0,uxTaskPriorityGet
FNDA:0,uxTaskPriorityGetFromISR
FNDA:0,uxTaskBasePriorityGet
FNDA:0,uxTaskBasePriorityGetFromISR
FNDA:402,vTaskPrioritySet
FNDA:0,vTaskSuspend
FNDA:0,prvTaskIsTaskSuspended
FNDA:0,vTaskResume
FNDA:0,xTaskResumeFromISR
FNDA:1,prvCreateIdleTasks
FNDA:1,vTaskStartScheduler
FNDA:0,vTaskEndScheduler
FNDA:1180,vTaskSuspendAll
FNDA:1180,xTaskResumeAll
FNDA:636,xTaskGetTickCount
FNDA:0,xTaskGetTickCountFromISR
FNDA:0,uxTaskGetNumberOfTasks
FNDA:12,pcTaskGetName
FNDA:0,prvSearchForNameWithinSingleList
FNDA:0,xTaskGetHandle
FNDA:0,xTaskGetIdleTaskHandle
FNDA:0,xTaskGetIdleTaskHandleForCore
FNDA:0,xTaskCatchUpTicks
FNDA:0,xTaskAbortDelay
FNDA:10001,xTaskIncrementTick
FNDA:0,vTaskSetApplicationTaskTag
FNDA:0,xTaskGetApplicationTaskTag
FNDA:0,xTaskGetApplicationTaskTagFromISR
FNDA:0,xTaskCallApplicationTaskHook
FNDA:11117,vTaskSwitchContext
FNDA:855,vTaskPlaceOnEventList
FNDA:0,vTaskPlaceOnUnorderedEventList
FNDA:1,vTaskPlaceOnEventListRestricted
FNDA:649,xTaskRemoveFromEventList
FNDA:0,vTaskRemoveFromUnorderedEventList
FNDA:0,vTaskSetTimeOutState
FNDA:1057,vTaskInternalSetTimeOutState
FNDA:1055,xTaskCheckForTimeOut
FNDA:0,vTaskMissedYield
FNDA:1,prvIdleTask
FNDA:1,prvInitialiseTaskLists
FNDA:29691355422,prvCheckTasksWaitingTermination
FNDA:0,prvDeleteTCB
FNDA:0,prvResetNextTaskUnblockTime
FNDA:32459,xTaskGetCurrentTaskHandle
FNDA:0,xTaskGetCurrentTaskHandleForCore
FNDA:7130,xTaskGetSchedulerState
FNDA:1,xTaskPriorityInherit
FNDA:2504,xTaskPriorityDisinherit
FNDA:0,vTaskPriorityDisinheritAfterTimeout
FNDA:0,uxTaskResetEventItemValue
FNDA:2488,pvTaskIncrementMutexHeldCount
FNDA:0,ulTaskGenericNotifyTake
FNDA:0,xTaskGenericNotifyWait
FNDA:0,xTaskGenericNotify
FNDA:0,xTaskGenericNotifyFromISR
FNDA:0,vTaskGenericNotifyGiveFromISR
FNDA:0,xTaskGenericNotifyStateClear
FNDA:0,ulTaskGenericNotifyValueClear
FNDA:0,ulTaskGetRunTimeCounter
FNDA:0,ulTaskGetRunTimePercent
FNDA:0,ulTaskGetIdleRunTimeCounter
FNDA:0,ulTaskGetIdleRunTimePercent
FNDA:890,prvAddCurrentTaskToDelayedList
FNF:72
FNH:28
DA:1619,12
DA:1669,12
DA:1671,12
DA:1677,12
DA:1679,12
DA:1681,12
DA:1684,12
DA:1690,0
DA:1695,0
DA:1700,12
DA:1710,12
DA:1713,12
DA:1717,12
DA:1729,12
DA:1731,12
DA:1740,12
DA:1741,12
DA:1745,0
DA:1750,12
DA:1792,12
DA:1833,12
DA:1834,12
DA:1837,12
DA:1843,12
DA:1862,12
DA:1864,63
DA:1866,63
DA:1871,63
DA:1873,12
DA:1883,12
DA:1891,12
DA:1893,12
DA:1895,0
DA:1902,12
DA:1905,12
DA:1909,12
DA:1910,12
DA:1914,12
DA:1917,12
DA:1918,12
DA:1974,12
DA:2003,12
DA:2007,12
DA:2013,12
DA:2018,12
DA:2022,12
DA:2024,12
DA:2026,12
DA:2030,1
DA:2032,1
DA:2037,1
DA:2049,11
DA:2051,11
DA:2053,4
DA:2066,12
DA:2076,12
DA:2080,12
DA:2082,12
DA:2086,0
DA:2092,12
DA:2190,0
DA:2193,0
DA:2198,0
DA:2202,0
DA:2205,0
DA:2215,0
DA:2217,0
DA:2228,0
DA:2233,0
DA:2238,0
DA:2246,0
DA:2251,0
DA:2258,0
DA:2266,0
DA:2297,0
DA:2302,0
DA:2305,0
DA:2310,0
DA:2312,0
DA:2319,0
DA:2321,0
DA:2323,0
DA:2324,0
DA:2335,0
DA:2342,0
DA:2346,0
DA:2350,0
DA:2351,0
DA:2353,0
DA:2357,0
DA:2359,0
DA:2362,0
DA:2364,0
DA:2371,0
DA:2373,0
DA:2385,0
DA:2387,0
DA:2396,0
DA:2398,0
DA:2404,0
DA:2411,0
DA:2415,0
DA:2417,0
DA:2426,0
DA:2434,34
DA:2436,34
DA:2441,34
DA:2443,34
DA:2445,34
DA:2456,34
DA:2458,34
DA:2467,34
DA:2469,34
DA:2477,33
DA:2484,0
DA:2491,0
DA:2495,0
DA:2498,0
DA:2501,0
DA:2506,0
DA:2508,0
DA:2509,0
DA:2510,0
DA:2511,0
DA:2513,0
DA:2515,0
DA:2520,0
DA:2522,0
DA:2526,0
DA:2530,0
DA:2535,0
DA:2546,0
DA:2548,0
DA:2550,0
DA:2552,0
DA:2553,0
DA:2565,0
DA:2571,0
DA:2576,0
DA:2586,0
DA:2608,0
DA:2616,0
DA:2623,0
DA:2627,0
DA:2628,0
DA:2630,0
DA:2634,0
DA:2642,0
DA:2668,0
DA:2672,0
DA:2673,0
DA:2675,0
DA:2679,0
DA:2687,0
DA:2694,0
DA:2698,0
DA:2699,0
DA:2701,0
DA:2705,0
DA:2713,0
DA:2739,0
DA:2743,0
DA:2744,0
DA:2746,0
DA:2750,0
DA:2758,402
DA:2763,402
DA:2771,402
DA:2774,402
DA:2776,0
DA:2783,402
DA:2787,402
DA:2793,402
DA:2801,402
DA:2805,402
DA:2809,202
DA:2814,0
DA:2816,0
DA:2838,200
DA:2847,200
DA:2860,402
DA:2867,402
DA:2869,402
DA:2877,402
DA:2887,402
DA:2889,402
DA:2900,402
DA:2905,402
DA:2917,402
DA:2935,402
DA:2938,200
DA:2962,402
DA:2965,402
DA:3114,0
DA:3120,0
DA:3124,0
DA:3130,0
DA:3140,0
DA:3142,0
DA:3149,0
DA:3155,0
DA:3157,0
DA:3161,0
DA:3207,0
DA:3213,0
DA:3217,0
DA:3219,0
DA:3221,0
DA:3228,0
DA:3230,0
DA:3233,0
DA:3234,0
DA:3245,0
DA:3247,0
DA:3253,0
DA:3257,0
DA:3269,0
DA:3276,0
DA:3278,0
DA:3279,0
DA:3285,0
DA:3288,0
DA:3291,0
DA:3295,0
DA:3306,0
DA:3308,0
DA:3310,0
DA:3312,0
DA:3313,0
DA:3338,0
DA:3346,0
DA:3348,0
DA:3353,0
DA:3359,0
DA:3370,0
DA:3372,0
DA:3378,0
DA:3379,0
DA:3384,0
DA:3391,0
DA:3399,0
DA:3407,0
DA:3409,0
DA:3410,0
DA:3415,0
DA:3435,0
DA:3437,0
DA:3442,0
DA:3448,0
DA:3450,0
DA:3455,0
DA:3464,0
DA:3465,0
DA:3472,0
DA:3491,0
DA:3495,0
DA:3501,1
DA:3503,1
DA:3506,1
DA:3509,5
DA:3511,5
DA:3516,5
DA:3518,1
DA:3527,2
DA:3531,1
DA:3620,1
DA:3630,1
DA:3632,0
DA:3650,1
DA:3655,1
DA:3669,1
DA:3673,1
DA:3675,1
DA:3684,1
DA:3700,1
DA:3710,1
DA:3711,1
DA:3712,1
DA:3729,1
DA:3743,0
DA:3752,0
DA:3755,0
DA:3758,0
DA:3769,0
DA:3774,0
DA:3776,0
DA:3783,0
DA:3790,0
DA:3791,0
DA:3795,0
DA:3798,0
DA:3801,1180
DA:3818,1180
DA:3822,1180
DA:3878,1180
DA:3946,1180
DA:3948,1180
DA:3949,1180
DA:3962,1180
DA:3965,1180
DA:3969,1180
DA:3971,1180
DA:3974,1180
DA:3976,1180
DA:3980,1166
DA:3985,0
DA:3986,0
DA:3987,0
DA:3988,0
DA:3989,0
DA:3995,0
DA:3997,0
DA:4013,1166
DA:4021,0
DA:4034,1166
DA:4036,1166
DA:4040,0
DA:4044,0
DA:4051,0
DA:4052,0
DA:4054,0
DA:4062,1166
DA:4066,0
DA:4072,0
DA:4087,1180
DA:4092,1180
DA:4096,636
DA:4105,636
DA:4111,636
DA:4115,0
DA:4138,0
DA:4140,0
DA:4146,0
DA:4150,0
DA:4158,0
DA:4162,12
DA:4170,12
DA:4171,12
DA:4175,12
DA:4182,0
DA:4187,0
DA:4194,0
DA:4199,0
DA:4206,0
DA:4210,0
DA:4212,0
DA:4214,0
DA:4216,0
DA:4219,0
DA:4221,0
DA:4225,0
DA:4226,0
DA:4233,0
DA:4235,0
DA:4239,0
DA:4242,0
DA:4244,0
DA:4251,0
DA:4327,0
DA:4329,0
DA:4335,0
DA:4337,0
DA:4342,0
DA:4343,0
DA:4345,0
DA:4348,0
DA:4350,0
DA:4353,0
DA:4355,0
DA:4358,0
DA:4360,0
DA:4365,0
DA:4368,0
DA:4375,0
DA:4378,0
DA:4383,0
DA:4387,0
DA:4529,0
DA:4535,0
DA:4539,0
DA:4543,0
DA:4548,0
DA:4552,0
DA:4556,0
DA:4610,0
DA:4618,0
DA:4622,0
DA:4625,0
DA:4627,0
DA:4629,0
DA:4630,0
DA:4634,0
DA:4640,0
DA:4642,0
DA:4647,0
DA:4649,0
DA:4653,0
DA:4655,0
DA:4660,0
DA:4666,0
DA:4668,0
DA:4670,0
DA:4675,0
DA:4682,0
DA:4685,0
DA:4696,0
DA:4700,0
DA:4721,0
DA:4724,0
DA:4728,0
DA:4734,10001
DA:4738,10001
DA:4755,10001
DA:4759,10001
DA:4763,10001
DA:4765,10001
DA:4767,0
DA:4778,10001
DA:4782,333
DA:4789,33
DA:4790,33
DA:4801,300
DA:4802,300
DA:4804,300
DA:4811,67
DA:4812,67
DA:4820,233
DA:4824,233
DA:4826,200
DA:4835,233
DA:4851,233
DA:4853,233
DA:4878,10001
DA:4880,0
DA:4927,10001
DA:4929,0
DA:4971,0
DA:4984,10001
DA:4990,0
DA:4999,0
DA:5001,0
DA:5005,0
DA:5010,0
DA:5012,0
DA:5014,0
DA:5017,0
DA:5024,0
DA:5032,0
DA:5036,0
DA:5038,0
DA:5040,0
DA:5044,0
DA:5052,0
DA:5061,0
DA:5065,0
DA:5067,0
DA:5069,0
DA:5073,0
DA:5081,0
DA:5090,0
DA:5092,0
DA:5096,0
DA:5099,0
DA:5101,0
DA:5105,0
DA:5110,0
DA:5117,11117
DA:5121,11117
DA:5125,0
DA:5129,11117
DA:5137,11117
DA:5147,11117
DA:5149,9931
DA:5156,11117
DA:5175,12509
DA:5181,11117
DA:5200,11117
DA:5304,855
DA:5309,855
DA:5325,855
DA:5327,855
DA:5330,855
DA:5333,0
DA:5339,0
DA:5343,0
DA:5348,0
DA:5355,0
DA:5357,0
DA:5360,0
DA:5365,1
DA:5371,1
DA:5383,1
DA:5388,1
DA:5390,1
DA:5394,1
DA:5397,1
DA:5402,649
DA:5425,649
DA:5426,649
DA:5427,649
DA:5429,649
DA:5431,649
DA:5432,649
DA:5452,0
DA:5457,649
DA:5462,26
DA:5466,26
DA:5470,623
DA:5491,649
DA:5495,0
DA:5504,0
DA:5507,0
DA:5514,0
DA:5515,0
DA:5516,0
DA:5535,0
DA:5536,0
DA:5540,0
DA:5546,0
DA:5564,0
DA:5567,0
DA:5571,0
DA:5572,0
DA:5574,0
DA:5575,0
DA:5577,0
DA:5580,0
DA:5583,1057
DA:5588,1057
DA:5589,1057
DA:5592,1057
DA:5595,1055
DA:5602,1055
DA:5603,1055
DA:5605,1055
DA:5608,1055
DA:5609,1055
DA:5612,1055
DA:5616,0
DA:5617,0
DA:5623,1055
DA:5628,653
DA:5633,402
DA:5640,0
DA:5641,0
DA:5643,402
DA:5646,202
DA:5647,202
DA:5648,202
DA:5652,200
DA:5653,200
DA:5656,1055
DA:5660,1055
DA:5664,0
DA:5669,0
DA:5672,0
DA:5809,1
DA:5834,29691355422
DA:5858,29691355421
DA:5860,0
DA:6072,1
DA:6076,21
DA:6078,20
DA:6081,1
DA:6082,1
DA:6083,1
DA:6087,1
DA:6093,1
DA:6099,1
DA:6100,1
DA:6101,1
DA:6104,29691355422
DA:6114,29691355421
DA:6118,0
DA:6124,0
DA:6125,0
DA:6126,0
DA:6127,0
DA:6130,0
DA:6132,0
DA:6177,29691355421
DA:6467,0
DA:6472,0
DA:6485,0
DA:6486,0
DA:6515,0
DA:6520,0
DA:6522,0
DA:6528,0
DA:6536,0
DA:6538,0
DA:6544,32459
DA:6553,32459
DA:6557,32459
DA:6579,0
DA:6581,0
DA:6585,0
DA:6588,0
DA:6596,0
DA:6604,7130
DA:6610,7130
DA:6612,16
DA:6620,7114
DA:6622,7114
DA:6626,0
DA:6636,7130
DA:6644,1
DA:6646,1
DA:6647,1
DA:6653,1
DA:6658,1
DA:6663,1
DA:6665,1
DA:6674,1
DA:6676,1
DA:6689,1
DA:6690,1
DA:6705,0
DA:6711,1
DA:6715,0
DA:6724,0
DA:6739,1
DA:6747,2504
DA:6749,2504
DA:6750,2504
DA:6754,2504
DA:6760,2488
DA:6761,2488
DA:6762,2488
DA:6766,2488
DA:6769,1
DA:6776,1
DA:6788,1
DA:6793,1
DA:6794,1
DA:6814,1
DA:6833,2504
DA:6841,0
DA:6844,0
DA:6846,0
DA:6850,0
DA:6854,0
DA:6860,0
DA:6862,0
DA:6866,0
DA:6870,0
DA:6876,0
DA:6881,0
DA:6887,0
DA:6888,0
DA:6892,0
DA:6894,0
DA:6907,0
DA:6909,0
DA:6921,0
DA:6954,0
DA:7633,0
DA:7639,0
DA:7643,0
DA:7647,0
DA:7653,2488
DA:7659,2488
DA:7663,2488
DA:7665,2488
DA:7670,2488
DA:7678,0
DA:7683,0
DA:7687,0
DA:7691,0
DA:7697,0
DA:7700,0
DA:7703,0
DA:7705,0
DA:7707,0
DA:7719,0
DA:7724,0
DA:7727,0
DA:7734,0
DA:7737,0
DA:7739,0
DA:7746,0
DA:7749,0
DA:7751,0
DA:7753,0
DA:7755,0
DA:7759,0
DA:7767,0
DA:7769,0
DA:7773,0
DA:7781,0
DA:7787,0
DA:7791,0
DA:7795,0
DA:7800,0
DA:7803,0
DA:7808,0
DA:7811,0
DA:7813,0
DA:7815,0
DA:7827,0
DA:7832,0
DA:7835,0
DA:7842,0
DA:7845,0
DA:7847,0
DA:7854,0
DA:7858,0
DA:7862,0
DA:7869,0
DA:7872,0
DA:7878,0
DA:7879,0
DA:7882,0
DA:7884,0
DA:7888,0
DA:7896,0
DA:7903,0
DA:7908,0
DA:7909,0
DA:7910,0
DA:7912,0
DA:7914,0
DA:7916,0
DA:7919,0
DA:7921,0
DA:7923,0
DA:7925,0
DA:7926,0
DA:7927,0
DA:7929,0
DA:7930,0
DA:7931,0
DA:7933,0
DA:7934,0
DA:7935,0
DA:7937,0
DA:7939,0
DA:7941,0
DA:7946,0
DA:7949,0
DA:7951,0
DA:7955,0
DA:7957,0
DA:7962,0
DA:7964,0
DA:7971,0
DA:7973,0
DA:7974,0
DA:7977,0
DA:7997,0
DA:8004,0
DA:8008,0
DA:8016,0
DA:8025,0
DA:8030,0
DA:8031,0
DA:8051,0
DA:8053,0
DA:8055,0
DA:8057,0
DA:8060,0
DA:8061,0
DA:8063,0
DA:8065,0
DA:8066,0
DA:8067,0
DA:8069,0
DA:8070,0
DA:8071,0
DA:8073,0
DA:8074,0
DA:8075,0
DA:8077,0
DA:8079,0
DA:8081,0
DA:8086,0
DA:8089,0
DA:8091,0
DA:8095,0
DA:8097,0
DA:8102,0
DA:8103,0
DA:8110,0
DA:8113,0
DA:8115,0
DA:8117,0
DA:8118,0
DA:8124,0
DA:8129,0
DA:8133,0
DA:8135,0
DA:8141,0
DA:8167,0
DA:8171,0
DA:8179,0
DA:8189,0
DA:8190,0
DA:8210,0
DA:8212,0
DA:8214,0
DA:8215,0
DA:8219,0
DA:8225,0
DA:8228,0
DA:8230,0
DA:8232,0
DA:8233,0
DA:8239,0
DA:8244,0
DA:8248,0
DA:8250,0
DA:8256,0
DA:8282,0
DA:8285,0
DA:8292,0
DA:8300,0
DA:8304,0
DA:8306,0
DA:8308,0
DA:8310,0
DA:8311,0
DA:8315,0
DA:8318,0
DA:8322,0
DA:8330,0
DA:8339,0
DA:8343,0
DA:8345,0
DA:8349,0
DA:8350,0
DA:8352,0
DA:8356,0
DA:8364,0
DA:8370,0
DA:8374,0
DA:8382,0
DA:8389,0
DA:8392,0
DA:8395,0
DA:8397,0
DA:8398,0
DA:8402,0
DA:8407,0
DA:8415,0
DA:8417,0
DA:8422,0
DA:8424,0
DA:8429,0
DA:8437,0
DA:8440,0
DA:8445,0
DA:8448,0
DA:8451,0
DA:8453,0
DA:8455,0
DA:8458,0
DA:8462,0
DA:8467,0
DA:8473,890
DA:8477,890
DA:8478,890
DA:8479,890
DA:8486,890
DA:8492,890
DA:8505,890
DA:8510,654
DA:8517,236
DA:8520,236
DA:8522,236
DA:8527,0
DA:8534,236
DA:8539,236
DA:8541,68
DA:8589,890
LF:874
LH:293
end_of_record
TN:
SF:/home/atcsol/eclipse-workspace_FIE/asw_pus_freertos_prac9/llsw/freertos_osswr/Source/timers.c
FN:1086,1108,prvSwitchTimerLists
FN:1111,1159,prvCheckForValidListAndQueue
FN:1162,1188,xTimerIsTimerActive
FN:1191,1209,pvTimerGetTimerID
FN:1212,1228,vTimerSetTimerID
FN:1233,1256,xTimerPendFunctionCallFromISR
FN:1263,1291,xTimerPendFunctionCall
FN:237,331,xTimerCreateTimerTask
FN:336,363,xTimerCreate
FN:417,445,prvInitialiseNewTimer
FN:448,496,xTimerGenericCommandFromTask
FN:499,540,xTimerGenericCommandFromISR
FN:543,554,xTimerGetTimerDaemonTaskHandle
FN:557,568,xTimerGetPeriod
FN:571,593,vTimerSetReloadMode
FN:596,622,xTimerGetReloadMode
FN:624,635,uxTimerGetReloadMode
FN:638,651,xTimerGetExpiryTime
FN:685,696,pcTimerGetName
FN:699,715,prvReloadTimer
FN:718,745,prvProcessExpiredTimer
FN:748,779,prvTimerTask
FN:782,841,prvProcessTimerOrBlockTask
FN:844,868,prvGetNextExpireTime
FN:871,891,prvSampleTimeNow
FN:894,935,prvInsertTimerInActiveList
FN:938,1083,prvProcessReceivedCommands
FNDA:0,prvSwitchTimerLists
FNDA:1,prvCheckForValidListAndQueue
FNDA:0,xTimerIsTimerActive
FNDA:0,pvTimerGetTimerID
FNDA:0,vTimerSetTimerID
FNDA:0,xTimerPendFunctionCallFromISR
FNDA:0,xTimerPendFunctionCall
FNDA:1,xTimerCreateTimerTask
FNDA:0,xTimerCreate
FNDA:0,prvInitialiseNewTimer
FNDA:0,xTimerGenericCommandFromTask
FNDA:0,xTimerGenericCommandFromISR
FNDA:0,xTimerGetTimerDaemonTaskHandle
FNDA:0,xTimerGetPeriod
FNDA:0,vTimerSetReloadMode
FNDA:0,xTimerGetReloadMode
FNDA:0,uxTimerGetReloadMode
FNDA:0,xTimerGetExpiryTime
FNDA:0,pcTimerGetName
FNDA:0,prvReloadTimer
FNDA:0,prvProcessExpiredTimer
FNDA:1,prvTimerTask
FNDA:1,prvProcessTimerOrBlockTask
FNDA:1,prvGetNextExpireTime
FNDA:1,prvSampleTimeNow
FNDA:0,prvInsertTimerInActiveList
FNDA:0,prvProcessReceivedCommands
FNF:27
FNH:6
DA:237,1
DA:239,1
DA:247,1
DA:249,1
DA:310,1
DA:326,1
DA:330,1
DA:336,0
DA:349,0
DA:351,0
DA:356,0
DA:357,0
DA:362,0
DA:417,0
DA:425,0
DA:429,0
DA:433,0
DA:434,0
DA:435,0
DA:436,0
DA:437,0
DA:439,0
DA:441,0
DA:445,0
DA:448,0
DA:454,0
DA:461,0
DA:465,0
DA:468,0
DA:469,0
DA:470,0
DA:472,0
DA:474,0
DA:476,0
DA:478,0
DA:482,0
DA:495,0
DA:499,0
DA:505,0
DA:512,0
DA:516,0
DA:519,0
DA:520,0
DA:521,0
DA:523,0
DA:525,0
DA:527,0
DA:539,0
DA:543,0
DA:549,0
DA:553,0
DA:557,0
DA:559,0
DA:563,0
DA:567,0
DA:571,0
DA:574,0
DA:578,0
DA:579,0
DA:581,0
DA:583,0
DA:587,0
DA:590,0
DA:593,0
DA:596,0
DA:598,0
DA:603,0
DA:604,0
DA:606,0
DA:609,0
DA:614,0
DA:617,0
DA:621,0
DA:624,0
DA:630,0
DA:634,0
DA:638,0
DA:640,0
DA:645,0
DA:646,0
DA:650,0
DA:685,0
DA:687,0
DA:691,0
DA:695,0
DA:699,0
DA:706,0
DA:709,0
DA:713,0
DA:715,0
DA:718,0
DA:724,0
DA:729,0
DA:733,0
DA:735,0
DA:739,0
DA:744,0
DA:745,0
DA:748,1
DA:770,1
DA:774,1
DA:777,0
DA:782,1
DA:788,1
DA:795,1
DA:797,1
DA:800,1
DA:802,0
DA:803,0
DA:813,1
DA:817,1
DA:820,1
DA:822,1
DA:828,1
DA:838,0
DA:841,0
DA:844,1
DA:855,1
DA:857,1
DA:859,0
DA:864,1
DA:867,1
DA:871,1
DA:876,1
DA:878,1
DA:880,0
DA:881,0
DA:885,1
DA:888,1
DA:890,1
DA:894,0
DA:899,0
DA:901,0
DA:902,0
DA:904,0
DA:908,0
DA:912,0
DA:916,0
DA:921,0
DA:926,0
DA:930,0
DA:934,0
DA:938,0
DA:940,0
DA:945,0
DA:951,0
DA:953,0
DA:957,0
DA:960,0
DA:971,0
DA:975,0
DA:977,0
DA:980,0
DA:995,0
DA:997,0
DA:999,0
DA:1004,0
DA:1006,0
DA:1010,0
DA:1012,0
DA:1016,0
DA:1021,0
DA:1028,0
DA:1030,0
DA:1033,0
DA:1034,0
DA:1036,0
DA:1038,0
DA:1039,0
DA:1040,0
DA:1048,0
DA:1049,0
DA:1051,0
DA:1057,0
DA:1059,0
DA:1063,0
DA:1075,0
DA:1077,0
DA:1079,0
DA:1083,0
DA:1086,0
DA:1095,0
DA:1097,0
DA:1102,0
DA:1105,0
DA:1106,0
DA:1107,0
DA:1108,0
DA:1111,1
DA:1116,1
DA:1118,1
DA:1120,1
DA:1121,1
DA:1122,1
DA:1123,1
DA:1136,1
DA:1142,1
DA:1144,1
DA:1158,1
DA:1159,1
DA:1162,0
DA:1165,0
DA:1169,0
DA:1172,0
DA:1174,0
DA:1176,0
DA:1180,0
DA:1183,0
DA:1187,0
DA:1191,0
DA:1193,0
DA:1198,0
DA:1200,0
DA:1202,0
DA:1204,0
DA:1208,0
DA:1212,0
DA:1215,0
DA:1219,0
DA:1221,0
DA:1223,0
DA:1225,0
DA:1228,0
DA:1233,0
DA:1245,0
DA:1246,0
DA:1247,0
DA:1248,0
DA:1250,0
DA:1255,0
DA:1263,0
DA:1276,0
DA:1280,0
DA:1281,0
DA:1282,0
DA:1283,0
DA:1285,0
DA:1290,0
LF:238
LH:43
end_of_record
TN:
SF:/home/atcsol/eclipse-workspace_FIE/asw_pus_freertos_prac9/llsw/obt_drv/src/obt_drv.c
FN:31,35,obt_drv_get_current_obt
FN:37,42,obt_drv_set_current_obt
FN:44,47,obt_drv_get_current_finetime_16bits
FNDA:59,obt_drv_get_current_obt
FNDA:0,obt_drv_set_current_obt
FNDA:57,obt_drv_get_current_finetime_16bits
FNF:3
FNH:2
DA:31,59
DA:33,59
DA:37,0
DA:40,0
DA:42,0
DA:44,57
DA:46,57
LF:7
LH:4
end_of_record
TN:
SF:/home/atcsol/eclipse-workspace_FIE/asw_pus_freertos_prac9/llsw/tc_queue_drv/src/tc_queue_drv.cpp
FN:108,123,_Z23TCQueue_TailTCCompletedt
FN:125,142,_Z23TCQueue_GetHeadTCMemoryRt
FN:144,157,_Z23TCQueue_HeadTCExtractedv
FN:47,54,_Z12TCQueue_InitPFvvES0_
FN:56,70,_Z14TCQueue_IsFullv
FN:72,86,_Z15TCQueue_IsEmptyv
FN:88,106,_Z23TCQueue_GetTailTCMemoryv
FNDA:15,_Z23TCQueue_TailTCCompletedt
FNDA:15,_Z23TCQueue_GetHeadTCMemoryRt
FNDA:15,_Z23TCQueue_HeadTCExtractedv
FNDA:1,_Z12TCQueue_InitPFvvES0_
FNDA:0,_Z14TCQueue_IsFullv
FNDA:15,_Z15TCQueue_IsEmptyv
FNDA:15,_Z23TCQueue_GetTailTCMemoryv
FNF:7
FNH:6
DA:47,1
DA:49,1
DA:50,1
DA:51,1
DA:52,1
DA:54,1
DA:56,0
DA:61,0
DA:63,0
DA:65,0
DA:69,0
DA:72,15
DA:77,15
DA:79,15
DA:81,15
DA:85,15
DA:88,15
DA:94,15
DA:96,15
DA:97,15
DA:99,15
DA:103,15
DA:105,15
DA:108,15
DA:111,15
DA:115,15
DA:117,15
DA:119,15
DA:123,15
DA:125,15
DA:131,15
DA:133,15
DA:135,15
DA:137,15
DA:141,15
DA:144,15
DA:148,15
DA:150,15
DA:151,15
DA:153,15
DA:157,15
LF:41
LH:36
end_of_record
TN:
SF:/home/atcsol/eclipse-workspace_FIE/asw_pus_freertos_prac9/llsw/tc_rate_ctrl/src/tc_rate_ctrl.cpp
FN:122,133,_Z19RxTC_TCRateExceededv
FN:49,53,_Z11ExtractHeadv
FN:55,58,_Z6IsFullv
FN:63,74,_Z10AddElement7Pr_Timeb
FN:76,119,_Z13RxTC_RateCtrlv
FNDA:0,_Z19RxTC_TCRateExceededv
FNDA:13,_Z11ExtractHeadv
FNDA:0,_Z6IsFullv
FNDA:15,_Z10AddElement7Pr_Timeb
FNDA:15,_Z13RxTC_RateCtrlv
FNF:5
FNH:3
DA:49,13
DA:51,13
DA:52,13
DA:53,13
DA:55,0
DA:57,0
DA:63,15
DA:67,15
DA:68,15
DA:70,15
DA:72,15
DA:74,15
DA:76,15
DA:78,15
DA:83,15
DA:85,15
DA:87,15
DA:90,15
DA:93,13
DA:95,13
DA:96,13
DA:97,13
DA:99,13
DA:101,0
DA:102,0
DA:105,0
DA:107,0
DA:111,13
DA:115,15
DA:116,15
DA:117,15
DA:119,15
DA:122,0
DA:125,0
DA:127,0
DA:128,0
DA:130,0
DA:132,0
LF:38
LH:26
end_of_record
TN:
SF:/home/atcsol/eclipse-workspace_FIE/asw_pus_freertos_prac9/llsw/tmtc_dyn_mem/src/tmtc_pool.cpp
FN:103,118,tmtc_pool_free
FN:64,73,init_tmtc_pool
FN:76,100,tmtc_pool_alloc
FNDA:87,tmtc_pool_free
FNDA:1,init_tmtc_pool
FNDA:73,tmtc_pool_alloc
FNF:3
FNH:3
DA:64,1
DA:67,51
DA:68,50
DA:73,1
DA:76,73
DA:78,73
DA:81,73
DA:84,119
DA:86,119
DA:87,73
DA:88,73
DA:89,73
DA:94,73
DA:98,73
DA:103,87
DA:108,87
DA:109,87
DA:111,87
DA:113,87
DA:114,87
DA:115,87
DA:118,87
LF:22
LH:22
end_of_record
TN:
SF:/home/atcsol/eclipse-workspace_FIE/asw_pus_freertos_prac9/service_libraries/ccsds_pus/src/ccsds_pus_format.c
FN:34,61,ccsds_pus_tm_write_fields
FN:4,32,ccsds_pus_tc_read_fields
FNDA:0,ccsds_pus_tm_write_fields
FNDA:17,ccsds_pus_tc_read_fields
FNF:2
FNH:1
DA:4,17
DA:10,17
DA:13,17
DA:16,17
DA:21,17
DA:24,17
DA:25,17
DA:26,17
DA:29,34
DA:30,17
DA:32,17
DA:34,0
DA:38,0
DA:41,0
DA:44,0
DA:47,0
DA:50,0
DA:51,0
DA:52,0
DA:54,0
DA:56,0
DA:58,0
DA:61,0
LF:23
LH:11
end_of_record
TN:
SF:/home/atcsol/eclipse-workspace_FIE/asw_pus_freertos_prac9/service_libraries/crc/src/crc.c
FN:29,48,cal_crc_16
FNDA:32,cal_crc_16
FNF:1
FNH:1
DA:29,32
DA:31,32
DA:33,530
DA:35,498
DA:37,4482
DA:39,3984
DA:40,2228
DA:42,1756
DA:47,32
LF:9
LH:9
end_of_record
TN:
SF:/home/atcsol/eclipse-workspace_FIE/asw_pus_freertos_prac9/service_libraries/drone_flight_pid_ctrl/src/drone_flight_pid_ctrl.c
FN:15,24,limit_force
FN:26,104,drone_flight_pid_ctrl
FNDA:0,limit_force
FNDA:0,drone_flight_pid_ctrl
FNF:2
FNH:0
DA:15,0
DA:17,0
DA:18,0
DA:19,0
DA:20,0
DA:21,0
DA:23,0
DA:26,0
DA:40,0
DA:41,0
DA:42,0
DA:53,0
DA:54,0
DA:55,0
DA:58,0
DA:59,0
DA:60,0
DA:66,0
DA:67,0
DA:68,0
DA:72,0
DA:73,0
DA:74,0
DA:76,0
DA:77,0
DA:78,0
DA:82,0
DA:83,0
DA:84,0
DA:90,0
DA:91,0
DA:92,0
DA:96,0
DA:97,0
DA:98,0
DA:100,0
DA:102,0
LF:37
LH:0
end_of_record
TN:
SF:/home/atcsol/eclipse-workspace_FIE/asw_pus_freertos_prac9/service_libraries/edroomsl/edroombp/include/public/edroombp.h
FN:122,122,_ZN9Pr_KernelD2Ev
FN:192,195,_ZN12Pr_SemaphoreD2Ev
FN:261,264,_ZN15Pr_SemaphoreBinD2Ev
FN:310,310,_ZN15Pr_SemaphoreRec4WaitEv
FN:319,319,_ZN15Pr_SemaphoreRec6SignalEv
FN:337,337,_ZN15Pr_SemaphoreRecD2Ev
FN:533,536,_ZN7Pr_TaskD2Ev
FNDA:1,_ZN9Pr_KernelD2Ev
FNDA:6,_ZN12Pr_SemaphoreD2Ev
FNDA:1,_ZN15Pr_SemaphoreBinD2Ev
FNDA:2488,_ZN15Pr_SemaphoreRec4WaitEv
FNDA:2488,_ZN15Pr_SemaphoreRec6SignalEv
FNDA:5,_ZN15Pr_SemaphoreRecD2Ev
FNDA:0,_ZN7Pr_TaskD2Ev
FNF:7
FNH:6
DA:122,1
DA:192,6
DA:194,6
DA:195,6
DA:261,1
DA:264,1
DA:310,2488
DA:319,2488
DA:337,5
DA:533,0
DA:536,0
LF:11
LH:9
end_of_record
TN:
SF:/home/atcsol/eclipse-workspace_FIE/asw_pus_freertos_prac9/service_libraries/edroomsl/edroombp/src/freertossapi/edroombp.cpp
FN:100,103,_ZN9Pr_KernelC2Ev
FN:105,110,_ZN9Pr_Kernel5StartEv
FN:112,116,_ZN9Pr_Kernel5PanicEPKc
FN:126,152,_ZN7Pr_TaskC2EPFvvEPKc15TEDROOMPriorityj
FN:154,180,_ZN7Pr_TaskC2EPFvvE15TEDROOMPriorityj
FN:182,191,_ZN7Pr_Task11SetPriorityE15TEDROOMPriority
FN:193,204,_ZN7Pr_Task13SetMaxPrioTmpE15TEDROOMPriority
FN:206,217,_ZN7Pr_Task13SetMaxPrioMsgE15TEDROOMPriority
FN:219,226,_ZN7Pr_Task14RestorePrioMsgEv
FN:228,231,_ZN7Pr_Task11GetTaskPrioEv
FN:233,240,_ZN7Pr_Task14ChangePriorityE15TEDROOMPriority
FN:249,253,_ZN7Pr_TimeC2Ev
FN:255,259,_ZN7Pr_TimeC2ERKS_
FN:261,265,_ZN7Pr_TimeC2Ejj
FN:267,276,_ZN7Pr_TimeC2E8timespec
FN:281,289,_ZN7Pr_Time7GetTimeEv
FN:291,300,_ZN7Pr_Time8GetTicksEv
FN:302,308,_ZN7Pr_Time8FineTimeEv
FN:310,317,_ZN7Pr_Time7TimeValEv
FN:321,325,_ZN7Pr_TimepLERKS_
FN:327,349,_ZN7Pr_TimemIERKS_
FN:35,35,_ZN11lista_tareaC2Ev
FN:353,358,_ZN7Pr_TimeaSERKS_
FN:360,363,_ZN7Pr_TimeeqERKS_
FN:365,368,_ZN7Pr_TimeneERKS_
FN:37,46,_ZN11lista_tarea3addEP19tskTaskControlBlockP7Pr_Task
FN:370,373,_ZN7Pr_TimegtERKS_
FN:375,378,_ZN7Pr_TimeltERKS_
FN:380,383,_ZN7Pr_TimegeERKS_
FN:385,388,_ZN7Pr_TimeleERKS_
FN:392,396,_ZNK7Pr_Time5TicksEv
FN:398,402,_Z10Pr_DelayInRK7Pr_Time
FN:404,422,_Z10Pr_DelayAtRK7Pr_Time
FN:428,431,_ZN12Pr_SemaphoreC2Ej
FN:439,447,_ZN15Pr_SemaphoreBinC2EPKcj
FN:451,459,_ZN15Pr_SemaphoreBinC2Ej
FN:463,469,_ZN15Pr_SemaphoreBin6SignalEv
FN:471,478,_ZN15Pr_SemaphoreBin4WaitEv
FN:48,71,_ZN11lista_tarea6removeEP19tskTaskControlBlock
FN:480,487,_ZN15Pr_SemaphoreBin8WaitCondEv
FN:489,497,_ZN15Pr_SemaphoreBin9WaitTimedERK7Pr_Time
FN:506,513,_ZN15Pr_SemaphoreRecC2EPKc
FN:516,525,_ZN15Pr_SemaphoreRecC2Ev
FN:529,542,_ZN15Pr_SemaphoreRecC2EPKcj
FN:545,560,_ZN15Pr_SemaphoreRecC2Ei
FN:562,568,_ZN15Pr_SemaphoreRec6UnLockEv
FN:570,580,_ZN15Pr_SemaphoreRec4LockEv
FN:584,589,_Z7Pr_SendR7Pr_TaskPv
FN:591,608,_Z10Pr_ReceivePvj
FN:615,617,_ZN13Pr_IRQManager7MaskIRQEj
FN:619,622,_ZN13Pr_IRQManager10DisableIRQEj
FN:624,627,_ZN13Pr_IRQManager9UnMaskIRQEj
FN:628,631,_ZN13Pr_IRQManager9EnableIRQEj
FN:633,636,_ZN13Pr_IRQManager14DisableAllIRQsEv
FN:638,641,_ZN13Pr_IRQManager19ApplyCurrentIRQMaskEv
FN:643,648,_ZN13Pr_IRQManager17InstallIRQHandlerEPFvvEhh
FN:650,655,_ZN13Pr_IRQManager19DeinstallIRQHandlerEhh
FN:671,674,_ZN11Pr_IRQEventC2Eh
FN:678,689,_ZN11Pr_IRQEvent6SignalEv
FN:691,695,_ZN11Pr_IRQEvent14SignalFromTaskEv
FN:696,699,_ZN11Pr_IRQEvent4WaitEv
FN:701,706,_ZN11Pr_IRQEvent9WaitTimedER7Pr_Time
FN:708,711,_ZN11Pr_IRQEvent8WaitCondEv
FN:73,90,_ZN11lista_tarea4findEP19tskTaskControlBlock
FNDA:1,_ZN9Pr_KernelC2Ev
FNDA:1,_ZN9Pr_Kernel5StartEv
FNDA:0,_ZN9Pr_Kernel5PanicEPKc
FNDA:0,_ZN7Pr_TaskC2EPFvvEPKc15TEDROOMPriorityj
FNDA:10,_ZN7Pr_TaskC2EPFvvE15TEDROOMPriorityj
FNDA:0,_ZN7Pr_Task11SetPriorityE15TEDROOMPriority
FNDA:202,_ZN7Pr_Task13SetMaxPrioTmpE15TEDROOMPriority
FNDA:0,_ZN7Pr_Task13SetMaxPrioMsgE15TEDROOMPriority
FNDA:200,_ZN7Pr_Task14RestorePrioMsgEv
FNDA:0,_ZN7Pr_Task11GetTaskPrioEv
FNDA:402,_ZN7Pr_Task14ChangePriorityE15TEDROOMPriority
FNDA:727,_ZN7Pr_TimeC2Ev
FNDA:655,_ZN7Pr_TimeC2ERKS_
FNDA:216,_ZN7Pr_TimeC2Ejj
FNDA:0,_ZN7Pr_TimeC2E8timespec
FNDA:635,_ZN7Pr_Time7GetTimeEv
FNDA:236,_ZN7Pr_Time8GetTicksEv
FNDA:0,_ZN7Pr_Time8FineTimeEv
FNDA:0,_ZN7Pr_Time7TimeValEv
FNDA:215,_ZN7Pr_TimepLERKS_
FNDA:202,_ZN7Pr_TimemIERKS_
FNDA:1,_ZN11lista_tareaC2Ev
FNDA:1038,_ZN7Pr_TimeaSERKS_
FNDA:0,_ZN7Pr_TimeeqERKS_
FNDA:0,_ZN7Pr_TimeneERKS_
FNDA:10,_ZN11lista_tarea3addEP19tskTaskControlBlockP7Pr_Task
FNDA:202,_ZN7Pr_TimegtERKS_
FNDA:13,_ZN7Pr_TimeltERKS_
FNDA:0,_ZN7Pr_TimegeERKS_
FNDA:0,_ZN7Pr_TimeleERKS_
FNDA:0,_ZNK7Pr_Time5TicksEv
FNDA:34,_Z10Pr_DelayInRK7Pr_Time
FNDA:0,_Z10Pr_DelayAtRK7Pr_Time
FNDA:58,_ZN12Pr_SemaphoreC2Ej
FNDA:0,_ZN15Pr_SemaphoreBinC2EPKcj
FNDA:42,_ZN15Pr_SemaphoreBinC2Ej
FNDA:844,_ZN15Pr_SemaphoreBin6SignalEv
FNDA:846,_ZN15Pr_SemaphoreBin4WaitEv
FNDA:0,_ZN11lista_tarea6removeEP19tskTaskControlBlock
FNDA:215,_ZN15Pr_SemaphoreBin8WaitCondEv
FNDA:202,_ZN15Pr_SemaphoreBin9WaitTimedERK7Pr_Time
FNDA:0,_ZN15Pr_SemaphoreRecC2EPKc
FNDA:16,_ZN15Pr_SemaphoreRecC2Ev
FNDA:0,_ZN15Pr_SemaphoreRecC2EPKcj
FNDA:0,_ZN15Pr_SemaphoreRecC2Ei
FNDA:2488,_ZN15Pr_SemaphoreRec6UnLockEv
FNDA:2488,_ZN15Pr_SemaphoreRec4LockEv
FNDA:210,_Z7Pr_SendR7Pr_TaskPv
FNDA:211,_Z10Pr_ReceivePvj
FNDA:1,_ZN13Pr_IRQManager7MaskIRQEj
FNDA:0,_ZN13Pr_IRQManager10DisableIRQEj
FNDA:1,_ZN13Pr_IRQManager9UnMaskIRQEj
FNDA:15,_ZN13Pr_IRQManager9EnableIRQEj
FNDA:0,_ZN13Pr_IRQManager14DisableAllIRQsEv
FNDA:0,_ZN13Pr_IRQManager19ApplyCurrentIRQMaskEv
FNDA:1,_ZN13Pr_IRQManager17InstallIRQHandlerEPFvvEhh
FNDA:0,_ZN13Pr_IRQManager19DeinstallIRQHandlerEhh
FNDA:1,_ZN11Pr_IRQEventC2Eh
FNDA:0,_ZN11Pr_IRQEvent6SignalEv
FNDA:15,_ZN11Pr_IRQEvent14SignalFromTaskEv
FNDA:16,_ZN11Pr_IRQEvent4WaitEv
FNDA:0,_ZN11Pr_IRQEvent9WaitTimedER7Pr_Time
FNDA:0,_ZN11Pr_IRQEvent8WaitCondEv
FNDA:211,_ZN11lista_tarea4findEP19tskTaskControlBlock
FNF:64
FNH:38
DA:35,1
DA:37,10
DA:40,10
DA:41,10
DA:42,10
DA:43,10
DA:44,10
DA:45,10
DA:48,0
DA:50,0
DA:51,0
DA:53,0
DA:55,0
DA:57,0
DA:58,0
DA:60,0
DA:61,0
DA:62,0
DA:66,0
DA:67,0
DA:70,0
DA:73,211
DA:76,211
DA:78,1463
DA:80,1463
DA:82,211
DA:86,1252
DA:89,0
DA:100,1
DA:103,1
DA:105,1
DA:108,1
DA:110,0
DA:112,0
DA:114,0
DA:116,0
DA:126,0
DA:129,0
DA:130,0
DA:131,0
DA:132,0
DA:134,0
DA:135,0
DA:137,0
DA:138,0
DA:139,0
DA:141,0
DA:142,0
DA:143,0
DA:146,0
DA:150,0
DA:152,0
DA:154,10
DA:156,10
DA:157,10
DA:158,10
DA:159,10
DA:163,10
DA:165,10
DA:166,10
DA:167,10
DA:169,10
DA:170,10
DA:171,10
DA:174,10
DA:178,0
DA:180,10
DA:182,0
DA:184,0
DA:186,0
DA:188,0
DA:189,0
DA:191,0
DA:193,202
DA:199,202
DA:201,202
DA:202,202
DA:204,202
DA:206,0
DA:208,0
DA:210,0
DA:211,0
DA:213,0
DA:214,0
DA:217,0
DA:219,200
DA:221,200
DA:223,200
DA:224,200
DA:226,200
DA:228,0
DA:230,0
DA:233,402
DA:236,402
DA:237,402
DA:239,402
DA:240,402
DA:249,727
DA:251,727
DA:252,727
DA:253,727
DA:255,655
DA:257,655
DA:258,655
DA:259,655
DA:261,216
DA:263,216
DA:264,216
DA:265,216
DA:267,0
DA:272,0
DA:273,0
DA:274,0
DA:275,0
DA:276,0
DA:281,635
DA:283,635
DA:284,635
DA:286,635
DA:288,635
DA:289,635
DA:291,236
DA:293,236
DA:294,236
DA:296,236
DA:297,236
DA:298,236
DA:299,236
DA:302,0
DA:304,0
DA:306,0
DA:310,0
DA:313,0
DA:314,0
DA:316,0
DA:321,215
DA:323,215
DA:324,215
DA:327,202
DA:329,202
DA:331,202
DA:332,202
DA:334,0
DA:336,0
DA:337,0
DA:340,0
DA:343,202
DA:346,0
DA:348,202
DA:353,1038
DA:355,1038
DA:356,1038
DA:357,1038
DA:360,0
DA:362,0
DA:365,0
DA:367,0
DA:370,202
DA:372,202
DA:375,13
DA:377,13
DA:380,0
DA:382,0
DA:385,0
DA:387,0
DA:392,0
DA:395,0
DA:398,34
DA:400,34
DA:401,34
DA:402,33
DA:404,0
DA:406,0
DA:407,0
DA:409,0
DA:410,0
DA:411,0
DA:412,0
DA:414,0
DA:418,0
DA:422,0
DA:428,58
DA:430,58
DA:431,58
DA:439,0
DA:440,0
DA:442,0
DA:443,0
DA:445,0
DA:447,0
DA:451,42
DA:453,42
DA:454,42
DA:455,42
DA:457,0
DA:459,42
DA:463,844
DA:465,844
DA:467,0
DA:469,844
DA:471,846
DA:473,846
DA:475,0
DA:478,842
DA:480,215
DA:484,215
DA:486,215
DA:489,202
DA:492,202
DA:494,202
DA:496,200
DA:506,0
DA:508,0
DA:509,0
DA:511,0
DA:513,0
DA:516,16
DA:519,16
DA:520,16
DA:521,16
DA:523,0
DA:525,16
DA:529,0
DA:537,0
DA:538,0
DA:540,0
DA:542,0
DA:545,0
DA:549,0
DA:555,0
DA:556,0
DA:558,0
DA:560,0
DA:562,2488
DA:564,2488
DA:566,0
DA:568,2488
DA:570,2488
DA:572,2488
DA:574,0
DA:577,0
DA:578,0
DA:580,2488
DA:584,210
DA:586,210
DA:587,210
DA:588,210
DA:589,209
DA:591,211
DA:593,211
DA:595,211
DA:599,210
DA:600,210
DA:602,5122
DA:604,4912
DA:607,210
DA:608,210
DA:615,1
DA:617,1
DA:619,0
DA:622,0
DA:624,1
DA:627,1
DA:628,15
DA:631,15
DA:633,0
DA:636,0
DA:638,0
DA:641,0
DA:643,1
DA:648,1
DA:650,0
DA:655,0
DA:671,1
DA:673,1
DA:674,1
DA:678,0
DA:689,0
DA:691,15
DA:693,15
DA:695,14
DA:696,16
DA:698,16
DA:699,15
DA:701,0
DA:704,0
DA:708,0
DA:710,0
LF:288
LH:156
end_of_record
TN:
SF:/home/atcsol/eclipse-workspace_FIE/asw_pus_freertos_prac9/service_libraries/edroomsl/edroombp/src/freertossapi/timespec.c
FN:22,41,timespec_normalize
FN:43,47,timespec_add
FN:49,53,timespec_sub
FN:55,57,timespec_nz
FN:59,62,timespec_lt
FN:64,66,timespec_gt
FN:68,70,timespec_le
FN:72,74,timespec_ge
FN:76,78,timespec_eq
FN:80,84,timespec_from_us
FN:86,88,timespec_to_us
FNDA:215,timespec_normalize
FNDA:215,timespec_add
FNDA:0,timespec_sub
FNDA:0,timespec_nz
FNDA:215,timespec_lt
FNDA:202,timespec_gt
FNDA:0,timespec_le
FNDA:0,timespec_ge
FNDA:0,timespec_eq
FNDA:0,timespec_from_us
FNDA:0,timespec_to_us
FNF:11
FNH:4
DA:22,215
DA:25,215
DA:26,0
DA:27,0
DA:30,215
DA:31,0
DA:32,0
DA:36,215
DA:39,0
DA:40,0
DA:43,215
DA:44,215
DA:45,215
DA:46,215
DA:47,215
DA:49,0
DA:50,0
DA:51,0
DA:52,0
DA:53,0
DA:55,0
DA:56,0
DA:59,215
DA:60,215
DA:61,13
DA:64,202
DA:65,202
DA:68,0
DA:69,0
DA:72,0
DA:73,0
DA:76,0
DA:77,0
DA:80,0
DA:81,0
DA:82,0
DA:83,0
DA:84,0
DA:86,0
DA:87,0
LF:40
LH:14
end_of_record
TN:
SF:/home/atcsol/eclipse-workspace_FIE/asw_pus_freertos_prac9/service_libraries/edroomsl/edroomsl/include/edroomsl/edroomsl.h
FN:115,115,_ZN11CEDROOMPoolD0Ev
FN:115,115,_ZN11CEDROOMPoolD2Ev
FN:1808,1808,_ZN16CEDROOMTXChannelC2Ev
FN:1812,1812,_ZN16CEDROOMTXChannelD0Ev
FN:1812,1812,_ZN16CEDROOMTXChannelD2Ev
FN:1883,1883,_ZN21CEDROOMLocalTXChannelD0Ev
FN:1883,1883,_ZN21CEDROOMLocalTXChannelD2Ev
FN:2224,2225,_ZN16CEDROOMComponent12SetErrorFlagE15TEDROOMCmpError
FN:2248,2248,_ZN16CEDROOMComponent14GetNomPriorityEv
FN:231,231,_ZN17CEDROOMMemoryPool7IsEmptyEv
FN:236,236,_ZN17CEDROOMMemoryPoolD0Ev
FN:236,236,_ZN17CEDROOMMemoryPoolD2Ev
FN:314,314,_ZN26CEDROOMProtectedMemoryPoolD0Ev
FN:314,314,_ZN26CEDROOMProtectedMemoryPoolD2Ev
FN:578,578,_ZN14CEDROOMMessageD0Ev
FN:578,578,_ZN14CEDROOMMessageD2Ev
FN:643,643,_ZN20CEDROOMSynchrMessageD0Ev
FN:643,643,_ZN20CEDROOMSynchrMessageD2Ev
FN:688,688,_ZN21CEDROOMTimeOutMessageD0Ev
FN:688,688,_ZN21CEDROOMTimeOutMessageD2Ev
FN:726,726,_ZN19CEDROOMMessagesPoolD0Ev
FN:726,726,_ZN19CEDROOMMessagesPoolD2Ev
FN:761,761,_ZN26CEDROOMTimeOutMessagesPoolD0Ev
FN:761,761,_ZN26CEDROOMTimeOutMessagesPoolD2Ev
FN:812,812,_ZN25CEDROOMSynchrMessagesPoolD0Ev
FN:812,812,_ZN25CEDROOMSynchrMessagesPoolD2Ev
FNDA:0,_ZN11CEDROOMPoolD0Ev
FNDA:17,_ZN11CEDROOMPoolD2Ev
FNDA:6,_ZN16CEDROOMTXChannelC2Ev
FNDA:0,_ZN16CEDROOMTXChannelD0Ev
FNDA:6,_ZN16CEDROOMTXChannelD2Ev
FNDA:0,_ZN21CEDROOMLocalTXChannelD0Ev
FNDA:6,_ZN21CEDROOMLocalTXChannelD2Ev
FNDA:0,_ZN16CEDROOMComponent12SetErrorFlagE15TEDROOMCmpError
FNDA:230,_ZN16CEDROOMComponent14GetNomPriorityEv
FNDA:459,_ZN17CEDROOMMemoryPool7IsEmptyEv
FNDA:0,_ZN17CEDROOMMemoryPoolD0Ev
FNDA:17,_ZN17CEDROOMMemoryPoolD2Ev
FNDA:0,_ZN26CEDROOMProtectedMemoryPoolD0Ev
FNDA:1,_ZN26CEDROOMProtectedMemoryPoolD2Ev
FNDA:0,_ZN14CEDROOMMessageD0Ev
FNDA:59,_ZN14CEDROOMMessageD2Ev
FNDA:0,_ZN20CEDROOMSynchrMessageD0Ev
FNDA:0,_ZN20CEDROOMSynchrMessageD2Ev
FNDA:0,_ZN21CEDROOMTimeOutMessageD0Ev
FNDA:9,_ZN21CEDROOMTimeOutMessageD2Ev
FNDA:0,_ZN19CEDROOMMessagesPoolD0Ev
FNDA:5,_ZN19CEDROOMMessagesPoolD2Ev
FNDA:0,_ZN26CEDROOMTimeOutMessagesPoolD0Ev
FNDA:3,_ZN26CEDROOMTimeOutMessagesPoolD2Ev
FNDA:0,_ZN25CEDROOMSynchrMessagesPoolD0Ev
FNDA:0,_ZN25CEDROOMSynchrMessagesPoolD2Ev
FNF:26
FNH:12
DA:115,17
DA:231,459
DA:236,17
DA:314,1
DA:578,59
DA:643,0
DA:688,9
DA:726,5
DA:761,3
DA:812,0
DA:1808,6
DA:1812,6
DA:1883,6
DA:2224,0
DA:2225,0
DA:2248,230
LF:16
LH:12
end_of_record
TN:
SF:/home/atcsol/eclipse-workspace_FIE/asw_pus_freertos_prac9/service_libraries/edroomsl/edroomsl/src/edroomsl.cpp
FN:102,125,_ZN17CEDROOMMemoryPool9SetMemoryEjPvPbj
FN:1056,1231,_ZN16CEDROOMTimingSAP8InformAtEP22CEDROOMTimingInterface7Pr_Time
FN:1236,1243,_ZN16CEDROOMTimingSAP5StartEv
FN:1248,1260,_ZN19CEDROOMTimingMemory9SetMemoryEjP16CEDROOMTimerInfoPbP21CEDROOMTimeOutMessageS2_
FN:1265,1271,_ZN20CEDROOMTimerInfoPool9SetMemoryEjP16CEDROOMTimerInfoPb
FN:127,129,_ZN17CEDROOMMemoryPool14GetElementSizeEv
FN:1276,1279,_ZN20CEDROOMTimerInfoPool9AllocDataERj
FN:1310,1313,_ZN12CEDROOMQueue10CQueueNodeC2Ev
FN:1318,1323,_ZN12CEDROOMQueue10CQueueHeadC2Ev
FN:1328,1352,_ZN12CEDROOMQueueC2EjP7Pr_TaskP15Pr_SemaphoreRectPNS_21CEDROOMQueueNodesPoolEPNS_10CQueueHeadE
FN:135,141,_ZN17CEDROOMMemoryPool9AllocDataEv
FN:1361,1364,_ZN12CEDROOMQueue6IsFullEv
FN:1369,1396,_ZN12CEDROOMQueue2InEP14CEDROOMMessage
FN:1401,1454,_ZN12CEDROOMQueue3OutERP14CEDROOMMessage
FN:1456,1502,_ZN12CEDROOMQueue26UpDateSortedQueueHeadsListE15TEDROOMPriority
FN:147,185,_ZN17CEDROOMMemoryPool9AllocDataERj
FN:1511,1528,_ZN12CEDROOMQueue9PutInNodeEPNS_10CQueueHeadEPNS_10CQueueNodeE
FN:1535,1553,_ZN12CEDROOMQueue11TakeOutNodeERPNS_10CQueueNodeER15TEDROOMPriority
FN:1558,1564,_ZN12CEDROOMQueue21CEDROOMQueueNodesPool9SetMemoryEjPNS_10CQueueNodeEPb
FN:1569,1572,_ZN12CEDROOMQueue21CEDROOMQueueNodesPool9AllocDataEv
FN:1606,1616,_ZN21CEDROOMLocalTXChannelC2Ev
FN:1621,1688,_ZN21CEDROOMLocalTXChannel4sendEiPvP17CEDROOMMemoryPool
FN:1693,1773,_ZN21CEDROOMLocalTXChannel6invokeEiPvP17CEDROOMMemoryPool
FN:1782,1790,_ZN19CEDROOMLocalCommSAP17RegisterInterfaceEjR16CEDROOMInterfaceP16CEDROOMComponent
FN:1795,1826,_ZN19CEDROOMLocalCommSAP7ConnectER16CEDROOMInterfaceS1_R22CEDROOMLocalConnectionPFiiES5_
FN:1860,1886,_ZN16CEDROOMComponentC2Ejtj15TEDROOMPriorityjP22CEDROOMComponentMemory
FN:1891,1918,_ZN16CEDROOMComponentC2EPKcjtj15TEDROOMPriorityjP22CEDROOMComponentMemory
FN:191,230,_ZN17CEDROOMMemoryPool8FreeDataEPv
FN:1923,1925,_ZN16CEDROOMComponentD0Ev
FN:1923,1925,_ZN16CEDROOMComponentD2Ev
FN:1930,1964,_ZN16CEDROOMComponent13EDROOMDestroyEv
FN:1969,1977,_ZN16CEDROOMComponent11EDROOMStartEv
FN:1984,2004,_ZN16CEDROOMComponent12EDROOMNewMsgEv
FN:2009,2032,_ZN16CEDROOMComponent17EDROOMFreeMessageERP14CEDROOMMessage
FN:2037,2048,_ZN16CEDROOMComponent21EDROOMFreeMsgBackDataEv
FN:2055,2062,_ZN16CEDROOMComponent19EDROOMComponentTaskEv
FN:2071,2085,_ZN22CEDROOMComponentMemory9SetMemoryEjP14CEDROOMMessagePbjPN12CEDROOMQueue10CQueueNodeES2_PNS3_10CQueueHeadE
FN:244,250,_ZN26CEDROOMProtectedMemoryPoolC2EjPvPbj
FN:256,262,_ZN26CEDROOMProtectedMemoryPool9AllocDataEv
FN:268,279,_ZN26CEDROOMProtectedMemoryPool9AllocDataERj
FN:285,297,_ZN26CEDROOMProtectedMemoryPool8FreeDataEPv
FN:330,340,_ZN14CEDROOMMessageC2Ev
FN:345,347,_ZN14CEDROOMMessage16FreeDeliveryInfoEv
FN:352,355,_ZN14CEDROOMMessage13GetPInterfaceEv
FN:357,363,_ZN14CEDROOMMessage14GetMsgDataSizeEv
FN:368,373,_ZN14CEDROOMMessage5replyEi
FN:376,382,_ZN14CEDROOMMessage5replyEiPvP17CEDROOMMemoryPool
FN:390,394,_ZN20CEDROOMSynchrMessageC2Ev
FN:399,403,_ZN20CEDROOMSynchrMessage5replyEi
FN:407,425,_ZN20CEDROOMSynchrMessage5replyEiPvP17CEDROOMMemoryPool
FN:432,448,_ZN21CEDROOMTimeOutMessage16FreeDeliveryInfoEv
FN:457,463,_ZN25CEDROOMSynchrMessagesPoolC2EP20CEDROOMSynchrMessage
FN:465,467,_ZN25CEDROOMSynchrMessagesPool14GetElementSizeEv
FN:471,476,_ZN25CEDROOMSynchrMessagesPool9AllocDataEv
FN:478,482,_ZN25CEDROOMSynchrMessagesPool8FreeDataEPv
FN:484,490,_ZN19CEDROOMMessagesPool9SetMemoryEjP14CEDROOMMessagePb
FN:492,496,_ZN19CEDROOMMessagesPool9AllocDataEv
FN:498,504,_ZN26CEDROOMTimeOutMessagesPool9SetMemoryEjP21CEDROOMTimeOutMessagePb
FN:506,509,_ZN26CEDROOMTimeOutMessagesPool9AllocDataEv
FN:543,548,_ZN16CEDROOMInterface4sendEi
FN:550,557,_ZN16CEDROOMInterface4sendEiPvP17CEDROOMMemoryPool
FN:562,565,_ZN16CEDROOMInterface6invokeEi
FN:570,575,_ZN16CEDROOMInterface6invokeEiPvP17CEDROOMMemoryPool
FN:580,584,_ZN16CEDROOMInterface16applyConverFunctEi
FN:588,590,_ZN16CEDROOMInterfaceeqERS_
FN:592,594,_ZN16CEDROOMInterfaceneERS_
FN:601,608,_ZN19CEDROOMIRQInterface14InstallHandlerEv
FN:610,618,_ZN19CEDROOMIRQInterface16DeInstallHandlerEv
FN:620,628,_ZN19CEDROOMIRQInterface17EndIRQHandlerTaskEv
FN:630,633,_ZN19CEDROOMIRQInterface7MaskIRQEv
FN:635,638,_ZN19CEDROOMIRQInterface9UnMaskIRQEv
FN:640,651,_ZN19CEDROOMIRQInterfaceC2EPFvvES1_R11Pr_IRQEventR15Pr_SemaphoreBina
FN:653,711,_ZN19CEDROOMIRQInterface9NewIRQMsgEiPvP17CEDROOMMemoryPool
FN:716,726,_ZN26CEDROOMNonMaskIRQInterfaceC2EPFvvES1_R11Pr_IRQEventR15Pr_SemaphoreBinhPh
FN:728,737,_ZN26CEDROOMNonMaskIRQInterface14InstallHandlerEv
FN:739,746,_ZN26CEDROOMNonMaskIRQInterface16DeInstallHandlerEv
FN:748,755,_ZN26CEDROOMNonMaskIRQInterface17EndIRQHandlerTaskEv
FN:790,793,_ZN12CEDROOMTimerC2Ev
FN:795,797,_ZN12CEDROOMTimer7IsValidEv
FN:807,815,_ZN22CEDROOMTimingInterfaceC2EP16CEDROOMTimingSAPj
FN:820,824,_ZN22CEDROOMTimingInterface8InformAtE7Pr_Time
FN:833,844,_ZN22CEDROOMTimingInterface8InformInE7Pr_Time
FN:849,851,_ZN22CEDROOMTimingInterface11currentTimeER7Pr_Time
FN:856,861,_ZN22CEDROOMTimingInterface11currentTimeEv
FN:870,890,_ZN16CEDROOMTimingSAPC2EP16CEDROOMComponentjP19CEDROOMTimingMemory
FN:895,1048,_ZN16CEDROOMTimingSAP14EDROOMfunTimerEv
FNDA:20,_ZN17CEDROOMMemoryPool9SetMemoryEjPvPbj
FNDA:202,_ZN16CEDROOMTimingSAP8InformAtEP22CEDROOMTimingInterface7Pr_Time
FNDA:3,_ZN16CEDROOMTimingSAP5StartEv
FNDA:3,_ZN19CEDROOMTimingMemory9SetMemoryEjP16CEDROOMTimerInfoPbP21CEDROOMTimeOutMessageS2_
FNDA:3,_ZN20CEDROOMTimerInfoPool9SetMemoryEjP16CEDROOMTimerInfoPb
FNDA:0,_ZN17CEDROOMMemoryPool14GetElementSizeEv
FNDA:202,_ZN20CEDROOMTimerInfoPool9AllocDataERj
FNDA:60,_ZN12CEDROOMQueue10CQueueNodeC2Ev
FNDA:40,_ZN12CEDROOMQueue10CQueueHeadC2Ev
FNDA:5,_ZN12CEDROOMQueueC2EjP7Pr_TaskP15Pr_SemaphoreRectPNS_21CEDROOMQueueNodesPoolEPNS_10CQueueHeadE
FNDA:457,_ZN17CEDROOMMemoryPool9AllocDataEv
FNDA:228,_ZN12CEDROOMQueue6IsFullEv
FNDA:228,_ZN12CEDROOMQueue2InEP14CEDROOMMessage
FNDA:230,_ZN12CEDROOMQueue3OutERP14CEDROOMMessage
FNDA:228,_ZN12CEDROOMQueue26UpDateSortedQueueHeadsListE15TEDROOMPriority
FNDA:687,_ZN17CEDROOMMemoryPool9AllocDataERj
FNDA:228,_ZN12CEDROOMQueue9PutInNodeEPNS_10CQueueHeadEPNS_10CQueueNodeE
FNDA:228,_ZN12CEDROOMQueue11TakeOutNodeERPNS_10CQueueNodeER15TEDROOMPriority
FNDA:5,_ZN12CEDROOMQueue21CEDROOMQueueNodesPool9SetMemoryEjPNS_10CQueueNodeEPb
FNDA:228,_ZN12CEDROOMQueue21CEDROOMQueueNodesPool9AllocDataEv
FNDA:6,_ZN21CEDROOMLocalTXChannelC2Ev
FNDA:12,_ZN21CEDROOMLocalTXChannel4sendEiPvP17CEDROOMMemoryPool
FNDA:1,_ZN21CEDROOMLocalTXChannel6invokeEiPvP17CEDROOMMemoryPool
FNDA:10,_ZN19CEDROOMLocalCommSAP17RegisterInterfaceEjR16CEDROOMInterfaceP16CEDROOMComponent
FNDA:3,_ZN19CEDROOMLocalCommSAP7ConnectER16CEDROOMInterfaceS1_R22CEDROOMLocalConnectionPFiiES5_
FNDA:5,_ZN16CEDROOMComponentC2Ejtj15TEDROOMPriorityjP22CEDROOMComponentMemory
FNDA:0,_ZN16CEDROOMComponentC2EPKcjtj15TEDROOMPriorityjP22CEDROOMComponentMemory
FNDA:679,_ZN17CEDROOMMemoryPool8FreeDataEPv
FNDA:0,_ZN16CEDROOMComponentD0Ev
FNDA:0,_ZN16CEDROOMComponentD2Ev
FNDA:0,_ZN16CEDROOMComponent13EDROOMDestroyEv
FNDA:5,_ZN16CEDROOMComponent11EDROOMStartEv
FNDA:230,_ZN16CEDROOMComponent12EDROOMNewMsgEv
FNDA:230,_ZN16CEDROOMComponent17EDROOMFreeMessageERP14CEDROOMMessage
FNDA:231,_ZN16CEDROOMComponent21EDROOMFreeMsgBackDataEv
FNDA:5,_ZN16CEDROOMComponent19EDROOMComponentTaskEv
FNDA:5,_ZN22CEDROOMComponentMemory9SetMemoryEjP14CEDROOMMessagePbjPN12CEDROOMQueue10CQueueNodeES2_PNS3_10CQueueHeadE
FNDA:4,_ZN26CEDROOMProtectedMemoryPoolC2EjPvPbj
FNDA:28,_ZN26CEDROOMProtectedMemoryPool9AllocDataEv
FNDA:28,_ZN26CEDROOMProtectedMemoryPool9AllocDataERj
FNDA:27,_ZN26CEDROOMProtectedMemoryPool8FreeDataEPv
FNDA:69,_ZN14CEDROOMMessageC2Ev
FNDA:28,_ZN14CEDROOMMessage16FreeDeliveryInfoEv
FNDA:228,_ZN14CEDROOMMessage13GetPInterfaceEv
FNDA:0,_ZN14CEDROOMMessage14GetMsgDataSizeEv
FNDA:0,_ZN14CEDROOMMessage5replyEi
FNDA:0,_ZN14CEDROOMMessage5replyEiPvP17CEDROOMMemoryPool
FNDA:5,_ZN20CEDROOMSynchrMessageC2Ev
FNDA:1,_ZN20CEDROOMSynchrMessage5replyEi
FNDA:1,_ZN20CEDROOMSynchrMessage5replyEiPvP17CEDROOMMemoryPool
FNDA:200,_ZN21CEDROOMTimeOutMessage16FreeDeliveryInfoEv
FNDA:5,_ZN25CEDROOMSynchrMessagesPoolC2EP20CEDROOMSynchrMessage
FNDA:0,_ZN25CEDROOMSynchrMessagesPool14GetElementSizeEv
FNDA:1,_ZN25CEDROOMSynchrMessagesPool9AllocDataEv
FNDA:1,_ZN25CEDROOMSynchrMessagesPool8FreeDataEPv
FNDA:5,_ZN19CEDROOMMessagesPool9SetMemoryEjP14CEDROOMMessagePb
FNDA:27,_ZN19CEDROOMMessagesPool9AllocDataEv
FNDA:3,_ZN26CEDROOMTimeOutMessagesPool9SetMemoryEjP21CEDROOMTimeOutMessagePb
FNDA:202,_ZN26CEDROOMTimeOutMessagesPool9AllocDataEv
FNDA:0,_ZN16CEDROOMInterface4sendEi
FNDA:12,_ZN16CEDROOMInterface4sendEiPvP17CEDROOMMemoryPool
FNDA:0,_ZN16CEDROOMInterface6invokeEi
FNDA:1,_ZN16CEDROOMInterface6invokeEiPvP17CEDROOMMemoryPool
FNDA:1,_ZN16CEDROOMInterface16applyConverFunctEi
FNDA:228,_ZN16CEDROOMInterfaceeqERS_
FNDA:0,_ZN16CEDROOMInterfaceneERS_
FNDA:1,_ZN19CEDROOMIRQInterface14InstallHandlerEv
FNDA:0,_ZN19CEDROOMIRQInterface16DeInstallHandlerEv
FNDA:0,_ZN19CEDROOMIRQInterface17EndIRQHandlerTaskEv
FNDA:1,_ZN19CEDROOMIRQInterface7MaskIRQEv
FNDA:1,_ZN19CEDROOMIRQInterface9UnMaskIRQEv
FNDA:1,_ZN19CEDROOMIRQInterfaceC2EPFvvES1_R11Pr_IRQEventR15Pr_SemaphoreBina
FNDA:15,_ZN19CEDROOMIRQInterface9NewIRQMsgEiPvP17CEDROOMMemoryPool
FNDA:0,_ZN26CEDROOMNonMaskIRQInterfaceC2EPFvvES1_R11Pr_IRQEventR15Pr_SemaphoreBinhPh
FNDA:0,_ZN26CEDROOMNonMaskIRQInterface14InstallHandlerEv
FNDA:0,_ZN26CEDROOMNonMaskIRQInterface16DeInstallHandlerEv
FNDA:0,_ZN26CEDROOMNonMaskIRQInterface17EndIRQHandlerTaskEv
FNDA:202,_ZN12CEDROOMTimerC2Ev
FNDA:0,_ZN12CEDROOMTimer7IsValidEv
FNDA:3,_ZN22CEDROOMTimingInterfaceC2EP16CEDROOMTimingSAPj
FNDA:202,_ZN22CEDROOMTimingInterface8InformAtE7Pr_Time
FNDA:0,_ZN22CEDROOMTimingInterface8InformInE7Pr_Time
FNDA:0,_ZN22CEDROOMTimingInterface11currentTimeER7Pr_Time
FNDA:0,_ZN22CEDROOMTimingInterface11currentTimeEv
FNDA:3,_ZN16CEDROOMTimingSAPC2EP16CEDROOMComponentjP19CEDROOMTimingMemory
FNDA:3,_ZN16CEDROOMTimingSAP14EDROOMfunTimerEv
FNF:86
FNH:64
DA:102,20
DA:108,20
DA:111,20
DA:113,180
DA:114,160
DA:117,20
DA:120,20
DA:123,20
DA:125,20
DA:127,0
DA:128,0
DA:135,457
DA:139,457
DA:147,687
DA:149,687
DA:153,687
DA:156,687
DA:159,687
DA:160,687
DA:163,687
DA:164,687
DA:165,687
DA:169,687
DA:171,687
DA:174,687
DA:176,687
DA:178,687
DA:181,0
DA:184,687
DA:191,679
DA:199,679
DA:202,679
DA:204,679
DA:206,679
DA:210,0
DA:215,679
DA:218,679
DA:221,679
DA:222,0
DA:224,679
DA:226,679
DA:229,679
DA:244,4
DA:245,4
DA:248,4
DA:250,4
DA:256,28
DA:260,56
DA:268,28
DA:272,28
DA:274,28
DA:276,28
DA:278,28
DA:285,27
DA:289,27
DA:291,27
DA:293,27
DA:295,27
DA:330,69
DA:332,69
DA:333,69
DA:334,69
DA:335,69
DA:336,69
DA:337,69
DA:338,69
DA:340,69
DA:345,28
DA:347,28
DA:352,228
DA:353,228
DA:357,0
DA:358,0
DA:359,0
DA:360,0
DA:362,0
DA:368,0
DA:372,0
DA:373,0
DA:376,0
DA:381,0
DA:382,0
DA:390,5
DA:391,5
DA:392,5
DA:393,5
DA:394,5
DA:399,1
DA:401,1
DA:403,1
DA:407,1
DA:410,1
DA:412,1
DA:413,1
DA:415,1
DA:416,0
DA:417,0
DA:420,1
DA:422,1
DA:423,1
DA:425,1
DA:432,200
DA:434,200
DA:436,200
DA:438,200
DA:440,200
DA:442,200
DA:446,200
DA:448,200
DA:457,5
DA:458,5
DA:459,5
DA:461,5
DA:463,5
DA:465,0
DA:466,0
DA:471,1
DA:473,1
DA:474,1
DA:478,1
DA:480,1
DA:481,1
DA:484,5
DA:487,5
DA:490,5
DA:492,27
DA:494,27
DA:498,3
DA:501,3
DA:504,3
DA:506,202
DA:508,202
DA:543,0
DA:546,0
DA:548,0
DA:550,12
DA:555,12
DA:557,12
DA:562,0
DA:564,0
DA:570,1
DA:573,1
DA:580,1
DA:582,1
DA:588,228
DA:589,228
DA:592,0
DA:593,0
DA:601,1
DA:602,1
DA:603,1
DA:605,1
DA:608,1
DA:610,0
DA:611,0
DA:612,0
DA:613,0
DA:614,0
DA:615,0
DA:618,0
DA:620,0
DA:622,0
DA:623,0
DA:624,0
DA:625,0
DA:626,0
DA:628,0
DA:630,1
DA:632,1
DA:633,1
DA:635,1
DA:637,1
DA:638,1
DA:640,1
DA:642,1
DA:644,1
DA:645,1
DA:646,1
DA:647,1
DA:648,1
DA:649,1
DA:651,1
DA:653,15
DA:659,15
DA:662,15
DA:665,0
DA:667,15
DA:670,0
DA:675,15
DA:679,15
DA:683,15
DA:686,15
DA:689,15
DA:691,15
DA:692,15
DA:693,0
DA:698,15
DA:701,15
DA:704,15
DA:709,15
DA:711,15
DA:716,0
DA:719,0
DA:721,0
DA:723,0
DA:724,0
DA:726,0
DA:728,0
DA:730,0
DA:731,0
DA:732,0
DA:734,0
DA:737,0
DA:739,0
DA:740,0
DA:741,0
DA:742,0
DA:743,0
DA:746,0
DA:748,0
DA:750,0
DA:751,0
DA:752,0
DA:753,0
DA:755,0
DA:790,202
DA:791,202
DA:792,202
DA:793,202
DA:795,0
DA:796,0
DA:807,3
DA:808,3
DA:810,3
DA:812,3
DA:813,3
DA:815,3
DA:820,202
DA:822,202
DA:833,0
DA:835,0
DA:837,0
DA:839,0
DA:842,0
DA:849,0
DA:850,0
DA:851,0
DA:856,0
DA:857,0
DA:858,0
DA:859,0
DA:870,3
DA:871,3
DA:873,3
DA:876,6
DA:880,3
DA:882,3
DA:884,3
DA:886,3
DA:888,3
DA:890,3
DA:895,3
DA:901,3
DA:903,3
DA:904,3
DA:908,3
DA:911,3
DA:914,3
DA:918,203
DA:921,203
DA:923,202
DA:926,202
DA:929,202
DA:931,202
DA:934,202
DA:937,202
DA:938,202
DA:940,202
DA:942,200
DA:947,200
DA:950,200
DA:954,200
DA:958,200
DA:961,200
DA:965,200
DA:968,200
DA:971,200
DA:973,200
DA:975,0
DA:979,200
DA:984,200
DA:987,200
DA:992,200
DA:994,0
DA:996,0
DA:998,0
DA:1001,0
DA:1004,0
DA:1007,0
DA:1012,0
DA:1015,0
DA:1018,0
DA:1020,0
DA:1022,0
DA:1026,0
DA:1031,0
DA:1034,0
DA:1037,0
DA:1044,200
DA:1056,202
DA:1062,202
DA:1065,202
DA:1067,202
DA:1069,0
DA:1072,0
DA:1079,202
DA:1082,202
DA:1085,202
DA:1088,202
DA:1091,202
DA:1093,202
DA:1095,202
DA:1100,202
DA:1103,202
DA:1107,202
DA:1111,202
DA:1113,202
DA:1115,202
DA:1117,202
DA:1119,202
DA:1121,202
DA:1123,202
DA:1125,202
DA:1127,202
DA:1129,202
DA:1133,202
DA:1137,202
DA:1139,202
DA:1143,0
DA:1144,0
DA:1150,0
DA:1152,0
DA:1153,0
DA:1157,0
DA:1160,0
DA:1166,0
DA:1170,0
DA:1173,0
DA:1177,0
DA:1179,0
DA:1181,0
DA:1184,0
DA:1187,0
DA:1188,0
DA:1192,0
DA:1200,202
DA:1202,202
DA:1203,202
DA:1209,202
DA:1211,202
DA:1215,202
DA:1219,202
DA:1220,201
DA:1225,201
DA:1230,201
DA:1236,3
DA:1240,3
DA:1241,3
DA:1243,3
DA:1248,3
DA:1255,3
DA:1258,3
DA:1260,3
DA:1265,3
DA:1268,3
DA:1271,3
DA:1276,202
DA:1278,202
DA:1310,60
DA:1311,60
DA:1312,60
DA:1313,60
DA:1318,40
DA:1319,40
DA:1320,40
DA:1321,40
DA:1322,40
DA:1323,40
DA:1328,5
DA:1330,5
DA:1331,5
DA:1335,5
DA:1337,5
DA:1338,5
DA:1339,5
DA:1341,5
DA:1342,5
DA:1344,5
DA:1345,5
DA:1347,45
DA:1348,40
DA:1350,5
DA:1352,5
DA:1361,228
DA:1363,228
DA:1369,228
DA:1371,228
DA:1375,228
DA:1376,228
DA:1377,228
DA:1379,228
DA:1383,228
DA:1385,228
DA:1389,228
DA:1391,220
DA:1392,220
DA:1396,228
DA:1401,230
DA:1408,230
DA:1412,230
DA:1414,222
DA:1418,222
DA:1421,222
DA:1427,220
DA:1434,228
DA:1436,228
DA:1438,228
DA:1442,228
DA:1444,228
DA:1446,228
DA:1450,228
DA:1452,228
DA:1456,228
DA:1460,228
DA:1462,228
DA:1464,228
DA:1466,228
DA:1467,228
DA:1469,0
DA:1471,0
DA:1472,0
DA:1473,0
DA:1476,0
DA:1478,0
DA:1480,0
DA:1482,0
DA:1483,0
DA:1484,0
DA:1488,0
DA:1489,0
DA:1491,0
DA:1493,0
DA:1494,0
DA:1495,0
DA:1502,228
DA:1511,228
DA:1512,228
DA:1514,228
DA:1516,0
DA:1517,0
DA:1518,0
DA:1521,228
DA:1523,228
DA:1526,228
DA:1535,228
DA:1540,228
DA:1542,228
DA:1545,228
DA:1549,228
DA:1551,228
DA:1553,228
DA:1558,5
DA:1561,5
DA:1564,5
DA:1569,228
DA:1571,228
DA:1606,6
DA:1608,6
DA:1609,6
DA:1611,6
DA:1612,6
DA:1613,6
DA:1614,6
DA:1616,6
DA:1621,12
DA:1627,12
DA:1628,12
DA:1629,0
DA:1632,0
DA:1634,0
DA:1639,12
DA:1642,12
DA:1645,0
DA:1647,0
DA:1649,12
DA:1652,0
DA:1654,0
DA:1658,12
DA:1659,12
DA:1664,12
DA:1667,12
DA:1670,12
DA:1673,12
DA:1676,12
DA:1679,12
DA:1682,12
DA:1683,12
DA:1684,12
DA:1688,12
DA:1693,1
DA:1697,1
DA:1704,1
DA:1709,1
DA:1712,1
DA:1715,1
DA:1718,1
DA:1721,1
DA:1722,1
DA:1723,0
DA:1726,1
DA:1731,1
DA:1735,1
DA:1738,1
DA:1741,1
DA:1744,1
DA:1747,1
DA:1749,1
DA:1751,0
DA:1753,0
DA:1754,0
DA:1755,0
DA:1756,0
DA:1757,0
DA:1758,0
DA:1761,1
DA:1763,1
DA:1765,1
DA:1767,1
DA:1771,1
DA:1782,10
DA:1785,10
DA:1787,10
DA:1789,10
DA:1795,3
DA:1801,3
DA:1803,3
DA:1805,3
DA:1807,3
DA:1811,3
DA:1812,3
DA:1816,3
DA:1817,3
DA:1818,3
DA:1819,3
DA:1823,3
DA:1824,3
DA:1826,3
DA:1860,5
DA:1862,5
DA:1863,5
DA:1864,5
DA:1867,5
DA:1871,5
DA:1873,5
DA:1875,5
DA:1877,5
DA:1879,5
DA:1880,5
DA:1882,5
DA:1884,5
DA:1886,5
DA:1891,0
DA:1894,0
DA:1895,0
DA:1896,0
DA:1899,0
DA:1903,0
DA:1905,0
DA:1907,0
DA:1909,0
DA:1911,0
DA:1912,0
DA:1914,0
DA:1916,0
DA:1918,0
DA:1923,0
DA:1925,0
DA:1930,0
DA:1934,0
DA:1936,0
DA:1938,0
DA:1940,0
DA:1943,0
DA:1946,0
DA:1950,0
DA:1952,0
DA:1955,0
DA:1959,0
DA:1962,0
DA:1964,0
DA:1969,5
DA:1972,5
DA:1974,5
DA:1976,5
DA:1984,230
DA:1987,230
DA:1990,230
DA:1993,230
DA:1996,230
DA:1999,230
DA:2002,228
DA:2004,228
DA:2009,230
DA:2012,230
DA:2014,225
DA:2015,27
DA:2016,27
DA:2018,0
DA:2024,225
DA:2026,225
DA:2027,225
DA:2029,225
DA:2032,230
DA:2037,231
DA:2039,231
DA:2040,0
DA:2041,0
DA:2042,0
DA:2044,0
DA:2048,231
DA:2055,5
DA:2058,5
DA:2060,5
DA:2062,0
DA:2071,5
DA:2078,5
DA:2080,5
DA:2083,5
DA:2085,5
LF:639
LH:453
end_of_record
TN:
SF:/home/atcsol/eclipse-workspace_FIE/asw_pus_freertos_prac9/service_libraries/edroomsl/edroomsl/src/edroomtc.cpp
FN:21,24,_ZN13CEDROOMstreamC2EPKc
FN:26,29,_ZN13CEDROOMstream4openEPKci
FN:31,34,_ZN13CEDROOMstream5closeEv
FN:36,39,_ZN13CEDROOMstream6reopenEv
FN:41,44,_ZN13CEDROOMstream7is_openEv
FN:46,49,_ZN13CEDROOMstream4goodEv
FN:51,56,_ZN13CEDROOMstreamlsEPKc
FN:58,64,_ZN13CEDROOMstreamlsERKi
FN:66,72,_ZN13CEDROOMstreamlsERKj
FN:74,77,_ZN13CEDROOMstreamlsERKf
FN:9,19,_ZN13CEDROOMstreamC2Ev
FNDA:0,_ZN13CEDROOMstreamC2EPKc
FNDA:0,_ZN13CEDROOMstream4openEPKci
FNDA:0,_ZN13CEDROOMstream5closeEv
FNDA:0,_ZN13CEDROOMstream6reopenEv
FNDA:0,_ZN13CEDROOMstream7is_openEv
FNDA:0,_ZN13CEDROOMstream4goodEv
FNDA:0,_ZN13CEDROOMstreamlsEPKc
FNDA:0,_ZN13CEDROOMstreamlsERKi
FNDA:0,_ZN13CEDROOMstreamlsERKj
FNDA:0,_ZN13CEDROOMstreamlsERKf
FNDA:0,_ZN13CEDROOMstreamC2Ev
FNF:11
FNH:0
DA:9,0
DA:11,0
DA:14,0
DA:16,0
DA:19,0
DA:21,0
DA:23,0
DA:24,0
DA:26,0
DA:29,0
DA:31,0
DA:34,0
DA:36,0
DA:39,0
DA:41,0
DA:43,0
DA:46,0
DA:48,0
DA:51,0
DA:54,0
DA:55,0
DA:58,0
DA:61,0
DA:63,0
DA:66,0
DA:69,0
DA:71,0
DA:74,0
DA:76,0
LF:29
LH:0
end_of_record
TN:
SF:/home/atcsol/eclipse-workspace_FIE/asw_pus_freertos_prac9/service_libraries/edroomsl/edroomsl_types/include/edroomsl_types/edroomsl_types.h
FN:33,36,_edroom_switch16
FN:38,43,_edroom_switch32
FN:46,55,_edroom_switch64
FNDA:0,_edroom_switch16
FNDA:0,_edroom_switch32
FNDA:0,_edroom_switch64
FNF:3
FNH:0
DA:33,0
DA:35,0
DA:38,0
DA:40,0
DA:41,0
DA:42,0
DA:46,0
DA:48,0
DA:49,0
DA:50,0
DA:51,0
DA:52,0
DA:53,0
DA:54,0
LF:14
LH:0
end_of_record
TN:
SF:/home/atcsol/eclipse-workspace_FIE/asw_pus_freertos_prac9/service_libraries/edroomsl/edroomsl_types/src/edroomsl_types.cpp
FN:14,17,TEDROOMUInt32_Serialize
FN:19,22,TEDROOMUInt32_Deserialize
FN:24,27,TEDROOMUInt16_Serialize
FN:29,32,TEDROOMUInt8_Serialize
FN:34,37,TEDROOMUInt8_Deserialize
FN:39,42,TEDROOMUInt16_Deserialize
FN:4,7,TEDROOMUInt64_Serialize
FN:9,12,TEDROOMUInt64_Deserialize
FNDA:0,TEDROOMUInt32_Serialize
FNDA:0,TEDROOMUInt32_Deserialize
FNDA:0,TEDROOMUInt16_Serialize
FNDA:0,TEDROOMUInt8_Serialize
FNDA:0,TEDROOMUInt8_Deserialize
FNDA:0,TEDROOMUInt16_Deserialize
FNDA:0,TEDROOMUInt64_Serialize
FNDA:0,TEDROOMUInt64_Deserialize
FNF:8
FNH:0
DA:4,0
DA:6,0
DA:7,0
DA:9,0
DA:11,0
DA:12,0
DA:14,0
DA:16,0
DA:17,0
DA:19,0
DA:21,0
DA:22,0
DA:24,0
DA:26,0
DA:27,0
DA:29,0
DA:31,0
DA:32,0
DA:34,0
DA:36,0
DA:37,0
DA:39,0
DA:41,0
DA:42,0
LF:24
LH:0
end_of_record
TN:
SF:/home/atcsol/eclipse-workspace_FIE/asw_pus_freertos_prac9/service_libraries/emu_tc_programming/src/emu_tc_prog_ft_st01_0020.cpp
FNF:0
FNH:0
LF:0
LH:0
end_of_record
TN:
SF:/home/atcsol/eclipse-workspace_FIE/asw_pus_freertos_prac9/service_libraries/emu_tc_programming/src/emu_tc_prog_ft_st01_0030.cpp
FNF:0
FNH:0
LF:0
LH:0
end_of_record
TN:
SF:/home/atcsol/eclipse-workspace_FIE/asw_pus_freertos_prac9/service_libraries/emu_tc_programming/src/emu_tc_prog_ft_st03_0065.cpp
FNF:0
FNH:0
LF:0
LH:0
end_of_record
TN:
SF:/home/atcsol/eclipse-workspace_FIE/asw_pus_freertos_prac9/service_libraries/emu_tc_programming/src/emu_tc_prog_ft_st128_0200.cpp
FNF:0
FNH:0
LF:0
LH:0
end_of_record
TN:
SF:/home/atcsol/eclipse-workspace_FIE/asw_pus_freertos_prac9/service_libraries/emu_tc_programming/src/emu_tc_prog_ft_st17_0010.cpp
FNF:0
FNH:0
LF:0
LH:0
end_of_record
TN:
SF:/home/atcsol/eclipse-workspace_FIE/asw_pus_freertos_prac9/service_libraries/emu_tc_programming/src/emu_tc_prog_ft_st19_0110.cpp
FNF:0
FNH:0
LF:0
LH:0
end_of_record
TN:
SF:/home/atcsol/eclipse-workspace_FIE/asw_pus_freertos_prac9/service_libraries/emu_tc_programming/src/emu_tc_prog_ft_st20_0075.cpp
FNF:0
FNH:0
LF:0
LH:0
end_of_record
TN:
SF:/home/atcsol/eclipse-workspace_FIE/asw_pus_freertos_prac9/service_libraries/pus_services/pus_service01/src/aux_pus_service01_x_utils.c
FN:117,137,pus_service1_build_TM_1_X_reqID
FN:139,164,pus_service1_tx_TM_1_X_reqID
FN:166,191,pus_service1_failure_tc_subtype
FN:193,226,pus_service1_tx_TM_1_X_no_failure_data
FN:227,265,pus_service1_tx_TM_1_X_uint8_failure_data
FN:268,306,pus_service1_tx_TM_1_X_uint16_failure_data
FN:308,346,pus_service1_tx_TM_1_X_uint32_failure_data
FN:34,115,pus_service1_build_TM_1_2_failure_notice
FN:348,392,pus_service1_tx_TM_1_X_uint8_uint32_failure_data
FNDA:43,pus_service1_build_TM_1_X_reqID
FNDA:41,pus_service1_tx_TM_1_X_reqID
FNDA:1,pus_service1_failure_tc_subtype
FNDA:1,pus_service1_tx_TM_1_X_no_failure_data
FNDA:0,pus_service1_tx_TM_1_X_uint8_failure_data
FNDA:0,pus_service1_tx_TM_1_X_uint16_failure_data
FNDA:0,pus_service1_tx_TM_1_X_uint32_failure_data
FNDA:1,pus_service1_build_TM_1_2_failure_notice
FNDA:0,pus_service1_tx_TM_1_X_uint8_uint32_failure_data
FNF:9
FNH:5
DA:34,1
DA:37,1
DA:39,1
DA:41,1
DA:43,0
DA:46,0
DA:50,0
DA:51,0
DA:54,0
DA:55,0
DA:57,0
DA:59,0
DA:62,0
DA:65,0
DA:67,0
DA:70,0
DA:74,0
DA:75,0
DA:77,0
DA:79,0
DA:82,0
DA:86,0
DA:87,0
DA:89,0
DA:91,1
DA:94,1
DA:98,1
DA:99,1
DA:101,1
DA:103,0
DA:105,0
DA:106,0
DA:111,0
DA:114,1
DA:117,43
DA:120,43
DA:122,43
DA:125,43
DA:126,43
DA:129,43
DA:130,43
DA:133,0
DA:135,43
DA:139,41
DA:142,41
DA:147,41
DA:149,41
DA:152,41
DA:155,41
DA:157,41
DA:160,41
DA:163,41
DA:166,1
DA:170,1
DA:172,0
DA:173,0
DA:174,0
DA:175,1
DA:176,1
DA:177,1
DA:179,0
DA:180,0
DA:181,0
DA:183,0
DA:184,0
DA:185,0
DA:189,1
DA:193,1
DA:196,1
DA:200,1
DA:205,1
DA:207,1
DA:210,1
DA:213,1
DA:216,1
DA:218,1
DA:222,1
DA:224,1
DA:227,0
DA:230,0
DA:234,0
DA:239,0
DA:241,0
DA:244,0
DA:247,0
DA:251,0
DA:255,0
DA:257,0
DA:261,0
DA:263,0
DA:268,0
DA:271,0
DA:275,0
DA:280,0
DA:282,0
DA:285,0
DA:288,0
DA:292,0
DA:296,0
DA:298,0
DA:302,0
DA:304,0
DA:308,0
DA:311,0
DA:315,0
DA:320,0
DA:322,0
DA:325,0
DA:328,0
DA:332,0
DA:336,0
DA:338,0
DA:342,0
DA:344,0
DA:348,0
DA:351,0
DA:355,0
DA:360,0
DA:362,0
DA:365,0
DA:368,0
DA:372,0
DA:376,0
DA:380,0
DA:382,0
DA:386,0
DA:388,0
LF:127
LH:44
end_of_record
TN:
SF:/home/atcsol/eclipse-workspace_FIE/asw_pus_freertos_prac9/service_libraries/pus_services/pus_service01/src/pus_service01.c
FN:179,189,pus_service1_tx_TM_1_1
FN:191,224,pus_service1_tx_TM_1_2
FN:226,238,pus_service1_tx_TM_1_3
FN:240,252,pus_service1_tx_TM_1_7
FN:33,177,pus_service1_tc_acceptation
FNDA:14,pus_service1_tx_TM_1_1
FNDA:1,pus_service1_tx_TM_1_2
FNDA:14,pus_service1_tx_TM_1_3
FNDA:14,pus_service1_tx_TM_1_7
FNDA:16,pus_service1_tc_acceptation
FNF:5
FNH:5
DA:33,16
DA:41,16
DA:44,16
DA:48,16
DA:52,16
DA:53,16
DA:55,0
DA:57,16
DA:58,16
DA:61,0
DA:63,16
DA:65,0
DA:69,16
DA:70,16
DA:71,16
DA:74,16
DA:75,1
DA:76,1
DA:77,1
DA:78,1
DA:79,0
DA:80,0
DA:83,1
DA:84,3
DA:85,3
DA:86,3
DA:89,3
DA:90,0
DA:91,0
DA:94,3
DA:95,0
DA:96,0
DA:97,0
DA:99,0
DA:100,0
DA:101,0
DA:104,0
DA:105,2
DA:106,2
DA:107,2
DA:111,2
DA:112,0
DA:113,0
DA:116,2
DA:117,3
DA:118,3
DA:119,2
DA:120,2
DA:121,1
DA:122,1
DA:125,3
DA:126,2
DA:127,2
DA:128,2
DA:133,2
DA:134,0
DA:135,0
DA:138,2
DA:139,4
DA:140,4
DA:141,4
DA:143,4
DA:144,0
DA:145,0
DA:148,4
DA:149,1
DA:150,1
DA:151,0
DA:152,0
DA:153,0
DA:158,0
DA:159,0
DA:160,0
DA:163,0
DA:166,0
DA:168,0
DA:169,0
DA:175,16
DA:179,14
DA:181,14
DA:183,14
DA:185,14
DA:188,14
DA:191,1
DA:194,1
DA:201,1
DA:203,1
DA:206,1
DA:209,1
DA:213,1
DA:215,1
DA:219,1
DA:222,1
DA:226,14
DA:228,14
DA:231,14
DA:233,14
DA:236,14
DA:240,14
DA:242,14
DA:245,14
DA:247,13
DA:250,14
LF:103
LH:73
end_of_record
TN:
SF:/home/atcsol/eclipse-workspace_FIE/asw_pus_freertos_prac9/service_libraries/pus_services/pus_service01/src/pus_service01_tx_tm_1_4.c
FN:103,109,pus_service1_tx_TM_1_4_PMON_undefined
FN:111,117,pus_service1_tx_TM_1_4_PMON_defined
FN:119,125,pus_service1_tx_TM_1_4_PMON_enabled
FN:127,133,pus_service1_tx_TM_1_4_PMONID_invalid
FN:135,142,pus_service1_tx_TM_1_4_PMON_definition_invalid
FN:144,150,pus_service1_tx_TM_1_4_EvAction_enabled
FN:152,157,pus_service1_tx_TM_1_4_EvAction_rejected
FN:159,165,pus_service1_tx_TM_1_4_EvAction_undefined
FN:168,174,pus_service1_tx_TM_1_4_PID_read_only_via_TC_20_X
FN:176,182,pus_service1_tx_TM_1_4_TC_X_Y_NO_EXEC_CODE
FN:184,190,pus_service1_tx_TM_1_4_TC_129_1_INVALID_FLIGHT_PLAN
FN:192,198,pus_service1_tx_TM_1_4_TC_129_2_INVALID_KP_KI_KD
FN:36,42,pus_service1_tx_TM_1_4_short_pack_length
FN:44,50,pus_service1_tx_TM_1_4_num_of_instr_not_valid
FN:52,59,pus_service1_tx_TM_1_4_device_address_not_valid
FN:60,66,pus_service1_tx_TM_1_4_SID_not_valid
FN:71,78,pus_service1_tx_TM_1_4_mem_address_not_valid
FN:80,86,pus_service1_tx_TM_1_4_mem_id_read_only
FN:87,93,pus_service1_tx_TM_1_4_EvID_not_valid
FN:95,101,pus_service1_tx_TM_1_4_PID_not_valid
FNDA:0,pus_service1_tx_TM_1_4_PMON_undefined
FNDA:0,pus_service1_tx_TM_1_4_PMON_defined
FNDA:0,pus_service1_tx_TM_1_4_PMON_enabled
FNDA:0,pus_service1_tx_TM_1_4_PMONID_invalid
FNDA:0,pus_service1_tx_TM_1_4_PMON_definition_invalid
FNDA:0,pus_service1_tx_TM_1_4_EvAction_enabled
FNDA:0,pus_service1_tx_TM_1_4_EvAction_rejected
FNDA:0,pus_service1_tx_TM_1_4_EvAction_undefined
FNDA:0,pus_service1_tx_TM_1_4_PID_read_only_via_TC_20_X
FNDA:1,pus_service1_tx_TM_1_4_TC_X_Y_NO_EXEC_CODE
FNDA:0,pus_service1_tx_TM_1_4_TC_129_1_INVALID_FLIGHT_PLAN
FNDA:0,pus_service1_tx_TM_1_4_TC_129_2_INVALID_KP_KI_KD
FNDA:0,pus_service1_tx_TM_1_4_short_pack_length
FNDA:0,pus_service1_tx_TM_1_4_num_of_instr_not_valid
FNDA:0,pus_service1_tx_TM_1_4_device_address_not_valid
FNDA:0,pus_service1_tx_TM_1_4_SID_not_valid
FNDA:0,pus_service1_tx_TM_1_4_mem_address_not_valid
FNDA:0,pus_service1_tx_TM_1_4_mem_id_read_only
FNDA:0,pus_service1_tx_TM_1_4_EvID_not_valid
FNDA:0,pus_service1_tx_TM_1_4_PID_not_valid
FNF:20
FNH:1
DA:36,0
DA:38,0
DA:40,0
DA:44,0
DA:47,0
DA:52,0
DA:55,0
DA:60,0
DA:63,0
DA:71,0
DA:74,0
DA:80,0
DA:83,0
DA:87,0
DA:90,0
DA:95,0
DA:98,0
DA:103,0
DA:106,0
DA:111,0
DA:114,0
DA:119,0
DA:122,0
DA:127,0
DA:130,0
DA:135,0
DA:138,0
DA:144,0
DA:147,0
DA:152,0
DA:154,0
DA:159,0
DA:162,0
DA:168,0
DA:171,0
DA:176,1
DA:179,1
DA:184,0
DA:187,0
DA:192,0
DA:195,0
LF:41
LH:2
end_of_record
TN:
SF:/home/atcsol/eclipse-workspace_FIE/asw_pus_freertos_prac9/service_libraries/pus_services/pus_service01/src/pus_service01_tx_tm_1_8.c
FN:38,44,pus_service1_tx_TM_1_8_Max_EvActions_defined
FN:46,52,pus_service1_tx_TM_1_8_exceed_limit_appdata
FN:54,61,pus_service1_tx_TM_1_8_dev_comman_exec_error
FN:63,69,pus_service1_tx_TM_1_8_not_free_stats_config
FN:71,76,pus_service1_tx_TM_1_8_PID_stats_undefined
FN:79,86,pus_service1_tx_TM_1_8_mem_access_error
FN:88,96,pus_service1_tx_TM_1_8_NotValidFlightPlanReady
FN:98,106,pus_service1_tx_TM_1_8_DroneIsNotFlying
FNDA:0,pus_service1_tx_TM_1_8_Max_EvActions_defined
FNDA:0,pus_service1_tx_TM_1_8_exceed_limit_appdata
FNDA:0,pus_service1_tx_TM_1_8_dev_comman_exec_error
FNDA:0,pus_service1_tx_TM_1_8_not_free_stats_config
FNDA:0,pus_service1_tx_TM_1_8_PID_stats_undefined
FNDA:0,pus_service1_tx_TM_1_8_mem_access_error
FNDA:0,pus_service1_tx_TM_1_8_NotValidFlightPlanReady
FNDA:0,pus_service1_tx_TM_1_8_DroneIsNotFlying
FNF:8
FNH:0
DA:38,0
DA:41,0
DA:46,0
DA:49,0
DA:54,0
DA:57,0
DA:63,0
DA:66,0
DA:71,0
DA:74,0
DA:79,0
DA:82,0
DA:88,0
DA:91,0
DA:98,0
DA:101,0
LF:16
LH:0
end_of_record
TN:
SF:/home/atcsol/eclipse-workspace_FIE/asw_pus_freertos_prac9/service_libraries/pus_services/pus_service02/src/pus_service02.c
FN:39,50,pus_service2_exec_tc
FN:52,104,pus_service2_exec_TC_2_1
FNDA:0,pus_service2_exec_tc
FNDA:0,pus_service2_exec_TC_2_1
FNF:2
FNH:0
DA:39,0
DA:40,0
DA:41,0
DA:42,0
DA:43,0
DA:44,0
DA:46,0
DA:47,0
DA:50,0
DA:52,0
DA:59,0
DA:62,0
DA:64,0
DA:67,0
DA:71,0
DA:73,0
DA:78,0
DA:80,0
DA:82,0
DA:84,0
DA:86,0
DA:90,0
DA:94,0
DA:103,0
DA:104,0
LF:25
LH:0
end_of_record
TN:
SF:/home/atcsol/eclipse-workspace_FIE/asw_pus_freertos_prac9/service_libraries/pus_services/pus_service03/src/aux_pus_service03_exec_tc.c
FN:105,109,pus_service3_exec_TC_3_6
FN:111,164,pus_service3_exec_TC_3_31
FN:44,97,pus_service3_exec_TC_3_5_3_6
FN:99,103,pus_service3_exec_TC_3_5
FNDA:1,pus_service3_exec_TC_3_6
FNDA:1,pus_service3_exec_TC_3_31
FNDA:2,pus_service3_exec_TC_3_5_3_6
FNDA:1,pus_service3_exec_TC_3_5
FNF:4
FNH:4
DA:44,2
DA:54,2
DA:57,2
DA:59,2
DA:62,0
DA:66,2
DA:68,0
DA:73,2
DA:75,2
DA:77,2
DA:79,2
DA:80,1
DA:82,1
DA:84,2
DA:86,2
DA:90,0
DA:96,2
DA:97,2
DA:99,1
DA:101,1
DA:103,1
DA:105,1
DA:107,1
DA:109,1
DA:111,1
DA:121,1
DA:124,1
DA:127,1
DA:130,1
DA:133,0
DA:137,1
DA:139,0
DA:144,1
DA:146,1
DA:148,1
DA:150,1
DA:151,1
DA:153,1
DA:157,0
DA:163,1
DA:164,1
LF:41
LH:35
end_of_record
TN:
SF:/home/atcsol/eclipse-workspace_FIE/asw_pus_freertos_prac9/service_libraries/pus_services/pus_service03/src/aux_pus_service03_tx_tm.c
FN:44,75,pus_service3_tx_TM_3_25
FNDA:6,pus_service3_tx_TM_3_25
FNF:1
FNH:1
DA:44,6
DA:49,6
DA:51,6
DA:53,6
DA:54,6
DA:56,18
DA:57,12
DA:59,12
DA:61,12
DA:65,6
DA:67,6
DA:70,6
DA:74,6
LF:13
LH:13
end_of_record
TN:
SF:/home/atcsol/eclipse-workspace_FIE/asw_pus_freertos_prac9/service_libraries/pus_services/pus_service03/src/aux_pus_service03_utils.c
FN:34,48,pus_service3_get_SID_index
FNDA:9,pus_service3_get_SID_index
FNF:1
FNH:1
DA:34,9
DA:36,9
DA:38,36
DA:39,27
DA:40,9
DA:42,9
DA:43,9
DA:47,9
LF:8
LH:8
end_of_record
TN:
SF:/home/atcsol/eclipse-workspace_FIE/asw_pus_freertos_prac9/service_libraries/pus_services/pus_service03/src/pus_service03.c
FN:62,79,pus_service3_do_HK
FN:81,99,pus_service3_exec_tc
FNDA:100,pus_service3_do_HK
FNDA:3,pus_service3_exec_tc
FNF:2
FNH:2
DA:62,100
DA:66,1700
DA:67,1600
DA:68,20
DA:69,20
DA:72,6
DA:74,6
DA:79,100
DA:81,3
DA:83,3
DA:84,1
DA:85,1
DA:86,1
DA:87,1
DA:88,1
DA:89,1
DA:90,1
DA:91,1
DA:92,1
DA:93,0
DA:95,0
DA:96,0
DA:99,3
LF:23
LH:20
end_of_record
TN:
SF:/home/atcsol/eclipse-workspace_FIE/asw_pus_freertos_prac9/service_libraries/pus_services/pus_service05/src/aux_pus_service05_exec_tc.c
FN:34,80,pus_service5_exec_TC_5_5_5_6
FN:82,86,pus_service5_exec_TC_5_5
FN:88,92,pus_service5_exec_TC_5_6
FNDA:0,pus_service5_exec_TC_5_5_5_6
FNDA:0,pus_service5_exec_TC_5_5
FNDA:0,pus_service5_exec_TC_5_6
FNF:3
FNH:0
DA:34,0
DA:43,0
DA:46,0
DA:48,0
DA:51,0
DA:55,0
DA:57,0
DA:63,0
DA:65,0
DA:67,0
DA:69,0
DA:73,0
DA:79,0
DA:80,0
DA:82,0
DA:84,0
DA:86,0
DA:88,0
DA:90,0
DA:92,0
LF:20
LH:0
end_of_record
TN:
SF:/home/atcsol/eclipse-workspace_FIE/asw_pus_freertos_prac9/service_libraries/pus_services/pus_service05/src/aux_pus_service05_tx_tm.c
FN:32,64,pus_service5_tx_TM_5_X_no_aux_data
FN:66,84,pus_service5_tx_TM_5_X_with_aux_data_prologue
FN:86,95,pus_service5_tx_TM_5_X_with_aux_data_epilogue
FNDA:2,pus_service5_tx_TM_5_X_no_aux_data
FNDA:1,pus_service5_tx_TM_5_X_with_aux_data_prologue
FNDA:1,pus_service5_tx_TM_5_X_with_aux_data_epilogue
FNF:3
FNH:3
DA:32,2
DA:34,2
DA:39,2
DA:41,2
DA:44,2
DA:46,2
DA:49,2
DA:52,2
DA:55,2
DA:58,2
DA:62,2
DA:66,1
DA:70,1
DA:72,1
DA:76,1
DA:79,1
DA:83,1
DA:86,1
DA:89,1
DA:92,1
DA:94,1
LF:21
LH:21
end_of_record
TN:
SF:/home/atcsol/eclipse-workspace_FIE/asw_pus_freertos_prac9/service_libraries/pus_services/pus_service05/src/aux_pus_service05_utils.c
FN:35,39,pus_service5_cal_EvID_TM_5_X_subtype
FN:41,86,pus_service5_check_EvID_enable_flag
FN:88,136,pus_service5_set_EvID_enable_flag
FNDA:3,pus_service5_cal_EvID_TM_5_X_subtype
FNDA:4,pus_service5_check_EvID_enable_flag
FNDA:0,pus_service5_set_EvID_enable_flag
FNF:3
FNH:2
DA:35,3
DA:37,3
DA:41,4
DA:43,4
DA:44,4
DA:45,4
DA:49,4
DA:50,2
DA:51,2
DA:52,2
DA:53,2
DA:54,0
DA:55,0
DA:56,0
DA:57,0
DA:58,0
DA:59,0
DA:60,0
DA:61,0
DA:62,2
DA:63,2
DA:64,2
DA:65,2
DA:66,0
DA:67,0
DA:68,0
DA:71,4
DA:72,4
DA:77,4
DA:78,4
DA:80,4
DA:81,4
DA:85,4
DA:88,0
DA:90,0
DA:91,0
DA:95,0
DA:96,0
DA:97,0
DA:98,0
DA:99,0
DA:100,0
DA:101,0
DA:102,0
DA:103,0
DA:104,0
DA:105,0
DA:106,0
DA:107,0
DA:108,0
DA:109,0
DA:110,0
DA:111,0
DA:112,0
DA:113,0
DA:114,0
DA:118,0
DA:119,0
DA:124,0
DA:125,0
DA:127,0
DA:128,0
DA:129,0
DA:131,0
DA:136,0
LF:65
LH:22
end_of_record
TN:
SF:/home/atcsol/eclipse-workspace_FIE/asw_pus_freertos_prac9/service_libraries/pus_services/pus_service05/src/pus_service05.c
FN:107,112,pus_service1_tx_TM_5_1_start_up
FN:114,119,pus_service1_tx_TM_5_1_drone_self_test_done
FN:121,128,pus_service1_tx_TM_5_1_drone_take_off
FN:131,137,pus_service1_tx_TM_5_1_drone_min_hight_reached
FN:139,145,pus_service1_tx_TM_5_1_drone_landing
FN:149,155,pus_service1_tx_TM_5_1_drone_landed
FN:158,198,pus_service1_tx_TM_5_X_param_out_of_limit
FN:200,244,pus_service1_tx_TM_5_X_param_check_value_fail
FN:36,71,pus_service5_get_EvID_type
FN:73,78,pus_service5_is_EvID_valid
FN:80,91,pus_service5_is_EvID_enabled
FN:93,105,pus_service5_exec_tc
FNDA:1,pus_service1_tx_TM_5_1_start_up
FNDA:1,pus_service1_tx_TM_5_1_drone_self_test_done
FNDA:0,pus_service1_tx_TM_5_1_drone_take_off
FNDA:0,pus_service1_tx_TM_5_1_drone_min_hight_reached
FNDA:0,pus_service1_tx_TM_5_1_drone_landing
FNDA:0,pus_service1_tx_TM_5_1_drone_landed
FNDA:1,pus_service1_tx_TM_5_X_param_out_of_limit
FNDA:0,pus_service1_tx_TM_5_X_param_check_value_fail
FNDA:10,pus_service5_get_EvID_type
FNDA:5,pus_service5_is_EvID_valid
FNDA:3,pus_service5_is_EvID_enabled
FNDA:0,pus_service5_exec_tc
FNF:12
FNH:6
DA:36,10
DA:38,10
DA:39,10
DA:40,10
DA:42,10
DA:43,4
DA:44,4
DA:45,4
DA:47,4
DA:48,0
DA:49,0
DA:50,0
DA:52,0
DA:53,0
DA:54,0
DA:55,0
DA:57,0
DA:58,6
DA:59,6
DA:60,6
DA:63,6
DA:65,0
DA:66,0
DA:69,10
DA:73,5
DA:75,5
DA:77,5
DA:80,3
DA:82,3
DA:84,3
DA:86,3
DA:89,3
DA:93,0
DA:95,0
DA:96,0
DA:97,0
DA:98,0
DA:99,0
DA:100,0
DA:101,0
DA:102,0
DA:103,0
DA:105,0
DA:107,1
DA:109,1
DA:111,1
DA:114,1
DA:116,1
DA:118,1
DA:121,0
DA:125,0
DA:127,0
DA:131,0
DA:133,0
DA:135,0
DA:139,0
DA:141,0
DA:143,0
DA:149,0
DA:151,0
DA:153,0
DA:158,1
DA:161,1
DA:164,1
DA:168,1
DA:172,1
DA:175,1
DA:176,1
DA:179,2
DA:180,1
DA:183,2
DA:184,1
DA:186,1
DA:187,1
DA:192,1
DA:196,1
DA:200,0
DA:203,0
DA:206,0
DA:210,0
DA:214,0
DA:217,0
DA:218,0
DA:221,0
DA:222,0
DA:225,0
DA:226,0
DA:229,0
DA:230,0
DA:232,0
DA:233,0
DA:238,0
DA:242,0
LF:93
LH:43
end_of_record
TN:
SF:/home/atcsol/eclipse-workspace_FIE/asw_pus_freertos_prac9/service_libraries/pus_services/pus_service12/src/aux_pus_service12_exec_tc.c
FN:100,160,pus_service12_exec_TC_12_2
FN:162,266,pus_service12_exec_TC_12_5
FN:268,315,pus_service12_exec_TC_12_6
FN:47,98,pus_service12_exec_TC_12_1
FNDA:0,pus_service12_exec_TC_12_2
FNDA:1,pus_service12_exec_TC_12_5
FNDA:0,pus_service12_exec_TC_12_6
FNDA:1,pus_service12_exec_TC_12_1
FNF:4
FNH:2
DA:47,1
DA:55,1
DA:58,1
DA:61,1
DA:63,0
DA:66,1
DA:68,0
DA:72,1
DA:75,1
DA:77,1
DA:79,1
DA:80,1
DA:81,1
DA:83,1
DA:87,0
DA:91,0
DA:97,1
DA:98,1
DA:100,0
DA:111,0
DA:114,0
DA:118,0
DA:120,0
DA:123,0
DA:125,0
DA:129,0
DA:132,0
DA:134,0
DA:137,0
DA:139,0
DA:141,0
DA:146,0
DA:153,0
DA:159,0
DA:160,0
DA:162,1
DA:171,1
DA:174,1
DA:177,1
DA:180,1
DA:184,1
DA:189,1
DA:190,1
DA:193,1
DA:195,0
DA:198,1
DA:200,0
DA:203,1
DA:206,0
DA:208,1
DA:210,1
DA:211,1
DA:213,1
DA:215,0
DA:220,1
DA:223,1
DA:225,1
DA:227,1
DA:232,0
DA:239,0
DA:241,0
DA:242,0
DA:244,0
DA:246,0
DA:250,0
DA:252,0
DA:254,0
DA:260,0
DA:264,1
DA:266,1
DA:268,0
DA:277,0
DA:280,0
DA:283,0
DA:285,0
DA:288,0
DA:290,0
DA:295,0
DA:298,0
DA:300,0
DA:302,0
DA:304,0
DA:306,0
DA:310,0
DA:315,0
LF:85
LH:35
end_of_record
TN:
SF:/home/atcsol/eclipse-workspace_FIE/asw_pus_freertos_prac9/service_libraries/pus_services/pus_service12/src/aux_pus_service12_tx_tm.c
FN:32,128,pus_service12_tx_TM_12_12
FNDA:2,pus_service12_tx_TM_12_12
FNF:1
FNH:1
DA:32,2
DA:34,2
DA:37,2
DA:42,2
DA:44,2
DA:47,2
DA:50,4
DA:56,2
DA:57,2
DA:60,4
DA:61,2
DA:64,4
DA:65,2
DA:67,2
DA:71,0
DA:72,0
DA:73,0
DA:75,0
DA:77,0
DA:81,2
DA:83,2
DA:88,4
DA:89,2
DA:90,2
DA:93,4
DA:94,2
DA:95,2
DA:98,2
DA:102,2
DA:107,2
DA:113,2
DA:115,2
DA:118,2
DA:123,0
DA:126,2
LF:35
LH:29
end_of_record
TN:
SF:/home/atcsol/eclipse-workspace_FIE/asw_pus_freertos_prac9/service_libraries/pus_services/pus_service12/src/aux_pus_service12_x_utils.c
FN:110,143,pus_service12_mng_param_out_of_high_limit
FN:145,178,pus_service12_mng_param_out_of_low_limit
FN:180,217,pus_service12_mng_param_unexpected_value
FN:219,275,pus_service12_mng_new_status
FN:277,284,pus_service12_mng_is_valid_check_limit_def
FN:286,304,pus_service12_add_valid_mng_mon_def
FN:306,349,pus_service12_exec_TC_12_X_get_PMON_limit_check_def
FN:351,390,pus_service12_exec_TC_12_X_get_PMON_value_check_def
FN:37,66,pus_service12_exec_TC_12_2_set_unchecked
FN:392,450,pus_service12_add_monitoring_transition
FN:68,73,pus_service12_PID_is_out_of_high_limit
FN:75,79,pus_service12_PID_is_out_of_low_limit
FN:81,87,pus_service12_PID_has_expected_masked_value
FN:89,108,pus_service12_are_status_equal
FNDA:10,pus_service12_mng_param_out_of_high_limit
FNDA:0,pus_service12_mng_param_out_of_low_limit
FNDA:0,pus_service12_mng_param_unexpected_value
FNDA:20,pus_service12_mng_new_status
FNDA:1,pus_service12_mng_is_valid_check_limit_def
FNDA:1,pus_service12_add_valid_mng_mon_def
FNDA:1,pus_service12_exec_TC_12_X_get_PMON_limit_check_def
FNDA:0,pus_service12_exec_TC_12_X_get_PMON_value_check_def
FNDA:1,pus_service12_exec_TC_12_2_set_unchecked
FNDA:2,pus_service12_add_monitoring_transition
FNDA:20,pus_service12_PID_is_out_of_high_limit
FNDA:10,pus_service12_PID_is_out_of_low_limit
FNDA:0,pus_service12_PID_has_expected_masked_value
FNDA:24,pus_service12_are_status_equal
FNF:14
FNH:10
DA:37,1
DA:40,1
DA:43,1
DA:44,1
DA:46,1
DA:48,1
DA:50,0
DA:52,0
DA:54,0
DA:55,0
DA:57,0
DA:61,1
DA:62,1
DA:66,1
DA:68,20
DA:71,20
DA:75,10
DA:78,10
DA:81,0
DA:84,0
DA:89,24
DA:92,24
DA:94,24
DA:96,24
DA:97,24
DA:98,24
DA:99,0
DA:100,0
DA:101,0
DA:102,0
DA:103,0
DA:106,24
DA:110,10
DA:114,10
DA:117,10
DA:121,10
DA:123,10
DA:125,10
DA:128,10
DA:132,10
DA:133,10
DA:135,1
DA:137,1
DA:142,10
DA:145,0
DA:149,0
DA:152,0
DA:156,0
DA:158,0
DA:160,0
DA:163,0
DA:167,0
DA:168,0
DA:170,0
DA:172,0
DA:177,0
DA:180,0
DA:184,0
DA:187,0
DA:191,0
DA:193,0
DA:195,0
DA:198,0
DA:201,0
DA:205,0
DA:206,0
DA:208,0
DA:210,0
DA:215,0
DA:219,20
DA:224,20
DA:227,20
DA:232,20
DA:236,4
DA:239,2
DA:246,2
DA:247,2
DA:248,2
DA:252,4
DA:254,2
DA:258,2
DA:260,2
DA:262,2
DA:268,16
DA:269,16
DA:274,20
DA:277,1
DA:280,1
DA:282,1
DA:286,1
DA:289,1
DA:291,1
DA:293,1
DA:295,1
DA:297,1
DA:299,1
DA:303,1
DA:306,1
DA:310,1
DA:319,1
DA:321,1
DA:324,1
DA:328,1
DA:333,1
DA:337,1
DA:340,1
DA:345,1
DA:348,1
DA:351,0
DA:355,0
DA:364,0
DA:366,0
DA:369,0
DA:373,0
DA:377,0
DA:381,0
DA:386,0
DA:389,0
DA:392,2
DA:398,2
DA:401,2
DA:403,2
DA:405,2
DA:407,2
DA:408,2
DA:410,2
DA:412,2
DA:413,2
DA:415,2
DA:418,2
DA:421,2
DA:423,0
DA:427,2
DA:429,2
DA:432,2
DA:433,2
DA:436,2
DA:439,2
DA:441,2
DA:443,2
DA:448,2
LF:141
LH:93
end_of_record
TN:
SF:/home/atcsol/eclipse-workspace_FIE/asw_pus_freertos_prac9/service_libraries/pus_services/pus_service12/src/pus_service12.c
FN:105,184,pus_service12_do_param_limits_monitoring
FN:186,239,pus_service12_do_param_check_value_monitoring
FN:36,44,pus_service12_startup
FN:50,69,pus_service12_exec_tc
FN:71,75,pus_service12_get_PMON_COUNT
FN:77,90,pus_service12_is_PMON_enabled
FN:92,103,pus_service12_get_PMON_type
FNDA:20,pus_service12_do_param_limits_monitoring
FNDA:0,pus_service12_do_param_check_value_monitoring
FNDA:1,pus_service12_startup
FNDA:2,pus_service12_exec_tc
FNDA:100,pus_service12_get_PMON_COUNT
FNDA:1600,pus_service12_is_PMON_enabled
FNDA:20,pus_service12_get_PMON_type
FNF:7
FNH:6
DA:36,1
DA:38,17
DA:40,16
DA:44,1
DA:50,2
DA:52,2
DA:53,1
DA:54,1
DA:55,1
DA:56,0
DA:57,0
DA:58,0
DA:59,1
DA:60,1
DA:61,1
DA:62,0
DA:63,0
DA:64,0
DA:65,0
DA:66,0
DA:69,2
DA:71,100
DA:73,100
DA:77,1600
DA:79,1600
DA:81,1600
DA:83,1600
DA:85,46
DA:89,1600
DA:92,20
DA:94,20
DA:96,20
DA:98,20
DA:101,20
DA:105,20
DA:108,20
DA:110,20
DA:113,20
DA:115,20
DA:116,20
DA:119,20
DA:121,20
DA:123,20
DA:125,20
DA:126,20
DA:129,10
DA:132,1
DA:135,10
DA:136,10
DA:137,10
DA:140,0
DA:143,0
DA:153,10
DA:155,10
DA:158,10
DA:160,10
DA:161,10
DA:164,0
DA:165,0
DA:170,10
DA:171,10
DA:183,20
DA:186,0
DA:189,0
DA:191,0
DA:194,0
DA:196,0
DA:197,0
DA:200,0
DA:202,0
DA:204,0
DA:207,0
DA:208,0
DA:209,0
DA:212,0
DA:214,0
DA:222,0
DA:224,0
DA:229,0
DA:230,0
DA:237,0
LF:81
LH:50
end_of_record
TN:
SF:/home/atcsol/eclipse-workspace_FIE/asw_pus_freertos_prac9/service_libraries/pus_services/pus_service128/src/pus_service128.c
FN:38,50,pus_service128_exec_tc
FN:52,65,pus_service128_exec_TC_128_1
FNDA:1,pus_service128_exec_tc
FNDA:1,pus_service128_exec_TC_128_1
FNF:2
FNH:2
DA:38,1
DA:40,1
DA:41,1
DA:42,1
DA:43,1
DA:44,0
DA:46,0
DA:47,0
DA:50,1
DA:52,1
DA:56,1
DA:60,1
DA:64,1
DA:65,1
LF:14
LH:11
end_of_record
TN:
SF:/home/atcsol/eclipse-workspace_FIE/asw_pus_freertos_prac9/service_libraries/pus_services/pus_service129/src/aux_pus_service129_drone_mng.c
FN:100,139,pus_service129_abort_current_flight_plan
FN:141,145,pus_service129_set_flight_plan_ready
FN:147,151,pus_service129_check_flight_plan
FN:153,167,pus_service129_drone_take_off
FN:169,189,pus_service129_drone_on_ground
FN:191,271,pus_service129_apply_ctrl_algorithm
FN:273,300,pus_service129_update_system_data_pool
FN:39,49,get_abs_error
FN:51,63,pus_service129_flight_plan_is_valid
FN:65,69,pus_service129_PID_Kx_isValid
FN:71,74,pus_service129_drone_set_min_high_before_advance
FN:76,82,pus_service129_drone_set_Kp_Ki_Kd
FN:84,90,pus_service129_set_flight_plan
FN:92,98,pus_service129_get_flight_plan
FNDA:0,pus_service129_abort_current_flight_plan
FNDA:0,pus_service129_set_flight_plan_ready
FNDA:0,pus_service129_check_flight_plan
FNDA:0,pus_service129_drone_take_off
FNDA:1,pus_service129_drone_on_ground
FNDA:0,pus_service129_apply_ctrl_algorithm
FNDA:1,pus_service129_update_system_data_pool
FNDA:0,get_abs_error
FNDA:0,pus_service129_flight_plan_is_valid
FNDA:0,pus_service129_PID_Kx_isValid
FNDA:1,pus_service129_drone_set_min_high_before_advance
FNDA:1,pus_service129_drone_set_Kp_Ki_Kd
FNDA:1,pus_service129_set_flight_plan
FNDA:0,pus_service129_get_flight_plan
FNF:14
FNH:5
DA:39,0
DA:42,0
DA:43,0
DA:45,0
DA:47,0
DA:51,0
DA:53,0
DA:55,0
DA:56,0
DA:57,0
DA:58,0
DA:60,0
DA:62,0
DA:65,0
DA:67,0
DA:71,1
DA:73,1
DA:74,1
DA:76,1
DA:78,1
DA:79,1
DA:80,1
DA:82,1
DA:84,1
DA:86,1
DA:87,1
DA:88,1
DA:90,1
DA:92,0
DA:94,0
DA:95,0
DA:96,0
DA:98,0
DA:100,0
DA:102,0
DA:104,0
DA:105,0
DA:106,0
DA:107,0
DA:108,0
DA:111,0
DA:112,0
DA:116,0
DA:117,0
DA:118,0
DA:121,0
DA:122,0
DA:126,0
DA:129,0
DA:134,0
DA:137,0
DA:141,0
DA:143,0
DA:145,0
DA:147,0
DA:149,0
DA:153,0
DA:155,0
DA:156,0
DA:157,0
DA:159,0
DA:160,0
DA:161,0
DA:163,0
DA:164,0
DA:165,0
DA:167,0
DA:169,1
DA:171,1
DA:172,1
DA:173,1
DA:175,1
DA:177,1
DA:178,1
DA:179,1
DA:181,1
DA:182,1
DA:183,1
DA:185,1
DA:186,1
DA:187,1
DA:188,1
DA:189,1
DA:191,0
DA:195,0
DA:196,0
DA:200,0
DA:204,0
DA:207,0
DA:208,0
DA:209,0
DA:212,0
DA:213,0
DA:215,0
DA:217,0
DA:218,0
DA:219,0
DA:221,0
DA:222,0
DA:223,0
DA:225,0
DA:226,0
DA:227,0
DA:230,0
DA:231,0
DA:233,0
DA:234,0
DA:236,0
DA:238,0
DA:239,0
DA:240,0
DA:241,0
DA:244,0
DA:245,0
DA:247,0
DA:249,0
DA:251,0
DA:255,0
DA:257,0
DA:258,0
DA:263,0
DA:265,0
DA:267,0
DA:269,0
DA:273,1
DA:277,1
DA:278,1
DA:280,1
DA:281,1
DA:283,1
DA:284,1
DA:286,1
DA:287,1
DA:289,1
DA:290,1
DA:292,1
DA:293,1
DA:295,1
DA:297,1
DA:298,1
DA:300,1
LF:141
LH:46
end_of_record
TN:
SF:/home/atcsol/eclipse-workspace_FIE/asw_pus_freertos_prac9/service_libraries/pus_services/pus_service129/src/aux_pus_service129_exec_tc.c
FN:125,151,pus_service129_exec_TC_129_3
FN:153,176,pus_service129_exec_TC_129_4
FN:34,76,pus_service129_exec_TC_129_1
FN:78,123,pus_service129_exec_TC_129_2
FNDA:0,pus_service129_exec_TC_129_3
FNDA:0,pus_service129_exec_TC_129_4
FNDA:0,pus_service129_exec_TC_129_1
FNDA:0,pus_service129_exec_TC_129_2
FNF:4
FNH:0
DA:34,0
DA:41,0
DA:43,0
DA:46,0
DA:51,0
DA:54,0
DA:58,0
DA:60,0
DA:62,0
DA:64,0
DA:67,0
DA:74,0
DA:76,0
DA:78,0
DA:87,0
DA:91,0
DA:94,0
DA:97,0
DA:100,0
DA:104,0
DA:105,0
DA:106,0
DA:108,0
DA:110,0
DA:112,0
DA:115,0
DA:121,0
DA:123,0
DA:125,0
DA:127,0
DA:132,0
DA:134,0
DA:136,0
DA:138,0
DA:142,0
DA:149,0
DA:151,0
DA:153,0
DA:155,0
DA:159,0
DA:161,0
DA:163,0
DA:167,0
DA:174,0
DA:176,0
LF:45
LH:0
end_of_record
TN:
SF:/home/atcsol/eclipse-workspace_FIE/asw_pus_freertos_prac9/service_libraries/pus_services/pus_service129/src/pus_service129.c
FN:105,109,pus_service129_flight_plan_ready
FN:111,115,pus_service129_flight_plan_done
FN:119,124,pus_service129_drone_ready
FN:20,23,pus_service129_drone_selftest
FN:25,38,pus_service129_setup
FN:40,60,pus_service129_exec_tc
FN:62,72,pus_service129_init_flight_plan
FN:74,103,pus_service129_flight_ctrl_algorithm
FNDA:0,pus_service129_flight_plan_ready
FNDA:0,pus_service129_flight_plan_done
FNDA:1,pus_service129_drone_ready
FNDA:1,pus_service129_drone_selftest
FNDA:1,pus_service129_setup
FNDA:0,pus_service129_exec_tc
FNDA:0,pus_service129_init_flight_plan
FNDA:0,pus_service129_flight_ctrl_algorithm
FNF:8
FNH:3
DA:20,1
DA:22,1
DA:23,1
DA:25,1
DA:28,1
DA:31,1
DA:34,1
DA:35,1
DA:38,1
DA:40,0
DA:42,0
DA:43,0
DA:44,0
DA:45,0
DA:46,0
DA:47,0
DA:48,0
DA:49,0
DA:50,0
DA:51,0
DA:52,0
DA:53,0
DA:54,0
DA:56,0
DA:57,0
DA:60,0
DA:62,0
DA:65,0
DA:66,0
DA:67,0
DA:72,0
DA:74,0
DA:78,0
DA:80,0
DA:82,0
DA:83,0
DA:84,0
DA:85,0
DA:86,0
DA:87,0
DA:88,0
DA:89,0
DA:90,0
DA:91,0
DA:92,0
DA:94,0
DA:95,0
DA:101,0
DA:103,0
DA:105,0
DA:107,0
DA:111,0
DA:113,0
DA:119,1
DA:122,1
DA:124,1
LF:56
LH:12
end_of_record
TN:
SF:/home/atcsol/eclipse-workspace_FIE/asw_pus_freertos_prac9/service_libraries/pus_services/pus_service17/src/aux_pus_service17_exec_tc.c
FN:39,56,pus_service17_tx_TM_17_2
FNDA:2,pus_service17_tx_TM_17_2
FNF:1
FNH:1
DA:39,2
DA:45,2
DA:47,2
DA:50,2
DA:53,2
DA:56,2
LF:6
LH:6
end_of_record
TN:
SF:/home/atcsol/eclipse-workspace_FIE/asw_pus_freertos_prac9/service_libraries/pus_services/pus_service17/src/pus_service17.c
FN:38,52,pus_service17_exec_tc
FN:54,66,pus_service17_exec_TC_17_1
FNDA:2,pus_service17_exec_tc
FNDA:2,pus_service17_exec_TC_17_1
FNF:2
FNH:2
DA:38,2
DA:40,2
DA:42,2
DA:43,2
DA:44,2
DA:45,0
DA:47,0
DA:49,0
DA:52,2
DA:54,2
DA:57,2
DA:59,2
DA:61,2
DA:65,2
DA:66,2
LF:15
LH:12
end_of_record
TN:
SF:/home/atcsol/eclipse-workspace_FIE/asw_pus_freertos_prac9/service_libraries/pus_services/pus_service19/src/aux_pus_service19_exec_tc.c
FN:140,212,pus_service19_exec_TC_19_2
FN:214,275,pus_service19_exec_TC_19_4
FN:277,338,pus_service19_exec_TC_19_5
FN:34,138,pus_service19_exec_TC_19_1
FNDA:0,pus_service19_exec_TC_19_2
FNDA:1,pus_service19_exec_TC_19_4
FNDA:0,pus_service19_exec_TC_19_5
FNDA:1,pus_service19_exec_TC_19_1
FNF:4
FNH:2
DA:34,1
DA:42,1
DA:45,1
DA:47,1
DA:50,0
DA:54,1
DA:56,0
DA:61,1
DA:63,0
DA:71,1
DA:74,1
DA:76,0
DA:78,0
DA:81,0
DA:85,1
DA:91,1
DA:94,1
DA:97,1
DA:100,1
DA:102,1
DA:104,1
DA:105,1
DA:108,1
DA:110,1
DA:112,1
DA:114,1
DA:116,1
DA:120,0
DA:126,0
DA:136,1
DA:138,1
DA:140,0
DA:148,0
DA:151,0
DA:153,0
DA:156,0
DA:160,0
DA:162,0
DA:167,0
DA:169,0
DA:177,0
DA:180,0
DA:182,0
DA:184,0
DA:187,0
DA:191,0
DA:193,0
DA:195,0
DA:201,0
DA:210,0
DA:212,0
DA:214,1
DA:222,1
DA:225,1
DA:227,1
DA:230,0
DA:234,1
DA:236,0
DA:241,1
DA:243,0
DA:251,1
DA:254,1
DA:256,1
DA:258,1
DA:260,1
DA:264,0
DA:273,1
DA:275,1
DA:277,0
DA:285,0
DA:288,0
DA:290,0
DA:293,0
DA:297,0
DA:299,0
DA:304,0
DA:306,0
DA:314,0
DA:317,0
DA:319,0
DA:321,0
DA:323,0
DA:327,0
DA:336,0
DA:338,0
LF:85
LH:36
end_of_record
TN:
SF:/home/atcsol/eclipse-workspace_FIE/asw_pus_freertos_prac9/service_libraries/pus_services/pus_service19/src/aux_pus_service19_utils.c
FN:109,124,pus_service19_disable_ev_action
FN:126,142,pus_service19_enable_ev_action
FN:144,162,pus_service19_delete_ev_action
FN:164,177,pus_service19_get_free_ev_action_id
FN:181,211,pus_service19_get_ev_action
FN:213,242,pus_service19_set_ev_action
FN:244,307,pus_service19_add_ev_action_to_queue
FN:309,353,pus_service19_extract_ev_action_from_queue
FN:355,357,pus_service19_extract_ev_5_1_action
FN:359,363,pus_service19_extract_ev_5_2_action
FN:365,368,pus_service19_extract_ev_5_3_action
FN:369,373,pus_service19_extract_ev_5_4_action
FN:70,73,pus_service19_pending_ev_5_1_actions
FN:75,78,pus_service19_pending_ev_5_2_actions
FN:80,84,pus_service19_pending_ev_5_3_actions
FN:86,89,pus_service19_pending_ev_5_4_actions
FN:93,107,pus_service19_is_ev_action_defined
FNDA:1,pus_service19_disable_ev_action
FNDA:1,pus_service19_enable_ev_action
FNDA:0,pus_service19_delete_ev_action
FNDA:1,pus_service19_get_free_ev_action_id
FNDA:1,pus_service19_get_ev_action
FNDA:1,pus_service19_set_ev_action
FNDA:1,pus_service19_add_ev_action_to_queue
FNDA:1,pus_service19_extract_ev_action_from_queue
FNDA:0,pus_service19_extract_ev_5_1_action
FNDA:0,pus_service19_extract_ev_5_2_action
FNDA:0,pus_service19_extract_ev_5_3_action
FNDA:1,pus_service19_extract_ev_5_4_action
FNDA:99,pus_service19_pending_ev_5_1_actions
FNDA:99,pus_service19_pending_ev_5_2_actions
FNDA:99,pus_service19_pending_ev_5_3_actions
FNDA:100,pus_service19_pending_ev_5_4_actions
FNDA:3,pus_service19_is_ev_action_defined
FNF:17
FNH:13
DA:70,99
DA:71,99
DA:75,99
DA:77,99
DA:80,99
DA:82,99
DA:86,100
DA:88,100
DA:93,3
DA:96,3
DA:98,3
DA:99,21
DA:100,18
DA:101,2
DA:102,2
DA:103,2
DA:106,3
DA:109,1
DA:112,1
DA:114,1
DA:116,1
DA:120,0
DA:123,1
DA:126,1
DA:129,1
DA:131,1
DA:133,1
DA:137,0
DA:140,1
DA:144,0
DA:147,0
DA:149,0
DA:151,0
DA:152,0
DA:156,0
DA:159,0
DA:164,1
DA:166,1
DA:167,1
DA:168,1
DA:169,2
DA:170,1
DA:171,1
DA:172,1
DA:173,1
DA:176,1
DA:181,1
DA:186,1
DA:188,0
DA:190,1
DA:192,0
DA:198,1
DA:200,1
DA:202,19
DA:204,18
DA:205,18
DA:209,1
DA:213,1
DA:219,1
DA:221,0
DA:223,1
DA:225,0
DA:229,1
DA:231,1
DA:233,19
DA:234,18
DA:235,18
DA:240,1
DA:244,1
DA:247,1
DA:249,1
DA:251,1
DA:253,0
DA:256,1
DA:258,1
DA:260,0
DA:261,0
DA:262,0
DA:263,0
DA:264,0
DA:265,0
DA:266,0
DA:267,0
DA:268,0
DA:270,1
DA:271,1
DA:272,1
DA:273,0
DA:274,0
DA:275,0
DA:280,1
DA:282,1
DA:288,1
DA:289,1
DA:290,1
DA:292,1
DA:295,1
DA:296,1
DA:297,1
DA:301,0
DA:306,1
DA:309,1
DA:311,1
DA:313,1
DA:314,0
DA:315,1
DA:316,0
DA:317,1
DA:318,0
DA:319,1
DA:320,0
DA:328,1
DA:331,1
DA:334,19
DA:336,18
DA:337,18
DA:341,1
DA:344,1
DA:345,1
DA:348,1
DA:352,1
DA:355,0
DA:356,0
DA:359,0
DA:361,0
DA:365,0
DA:366,0
DA:369,1
DA:371,1
LF:129
LH:92
end_of_record
TN:
SF:/home/atcsol/eclipse-workspace_FIE/asw_pus_freertos_prac9/service_libraries/pus_services/pus_service19/src/pus_service19.c
FN:31,48,pus_service19_mng_event_action
FN:50,56,pus_service19_pending_ev_actions
FN:58,92,pus_service19_extract_next_ev_action
FN:94,116,pus_service19_exec_tc
FNDA:1,pus_service19_mng_event_action
FNDA:99,pus_service19_pending_ev_actions
FNDA:1,pus_service19_extract_next_ev_action
FNDA:2,pus_service19_exec_tc
FNF:4
FNH:4
DA:31,1
DA:39,1
DA:43,1
DA:45,1
DA:48,1
DA:50,99
DA:52,99
DA:53,99
DA:54,99
DA:55,99
DA:58,1
DA:60,1
DA:61,1
DA:64,1
DA:66,1
DA:68,0
DA:70,0
DA:72,0
DA:74,0
DA:76,0
DA:78,0
DA:82,0
DA:83,0
DA:84,0
DA:88,0
DA:91,1
DA:94,2
DA:95,2
DA:96,1
DA:97,1
DA:98,1
DA:99,0
DA:100,0
DA:101,0
DA:102,1
DA:103,1
DA:104,1
DA:105,0
DA:106,0
DA:107,0
DA:109,0
DA:111,0
DA:113,0
DA:116,2
LF:44
LH:25
end_of_record
TN:
SF:/home/atcsol/eclipse-workspace_FIE/asw_pus_freertos_prac9/service_libraries/pus_services/pus_service20/src/aux_pus_service20_tx_tm.c
FN:36,67,pus_service20_tx_TM_20_2
FNDA:1,pus_service20_tx_TM_20_2
FNF:1
FNH:1
DA:36,1
DA:38,1
DA:43,1
DA:45,1
DA:48,1
DA:51,1
DA:54,1
DA:57,1
DA:59,1
DA:62,1
DA:65,1
LF:11
LH:11
end_of_record
TN:
SF:/home/atcsol/eclipse-workspace_FIE/asw_pus_freertos_prac9/service_libraries/pus_services/pus_service20/src/aux_pus_sevice20_exec_tc.c
FN:34,79,pus_service20_exec_TC_20_1
FN:81,150,pus_service20_exec_TC_20_3
FNDA:1,pus_service20_exec_TC_20_1
FNDA:3,pus_service20_exec_TC_20_3
FNF:2
FNH:2
DA:34,1
DA:42,1
DA:45,1
DA:47,1
DA:50,0
DA:54,1
DA:56,0
DA:61,1
DA:64,0
DA:68,1
DA:69,1
DA:70,1
DA:77,1
DA:79,1
DA:81,3
DA:89,3
DA:92,3
DA:95,3
DA:97,0
DA:100,3
DA:102,0
DA:107,3
DA:110,0
DA:114,3
DA:116,0
DA:124,3
DA:125,3
DA:127,3
DA:130,0
DA:134,3
DA:137,3
DA:140,3
DA:148,3
DA:150,3
LF:34
LH:26
end_of_record
TN:
SF:/home/atcsol/eclipse-workspace_FIE/asw_pus_freertos_prac9/service_libraries/pus_services/pus_service20/src/pus_service20.c
FN:43,60,pus_service20_exec_tc
FNDA:4,pus_service20_exec_tc
FNF:1
FNH:1
DA:43,4
DA:45,4
DA:46,1
DA:47,1
DA:48,1
DA:49,3
DA:50,3
DA:51,3
DA:52,0
DA:54,0
DA:55,0
DA:60,4
LF:12
LH:9
end_of_record
TN:
SF:/home/atcsol/eclipse-workspace_FIE/asw_pus_freertos_prac9/service_libraries/pus_services/pus_sys_data_pool/src/pus_sys_data_pool.c
FN:104,110,sys_data_pool_PID_size
FN:112,139,sys_data_pool_is_PID_update_via_TC_enabled
FN:141,150,sys_data_pool_get_int16_param
FN:152,161,sys_data_pool_get_uint8_param
FN:163,171,sys_data_pool_get_uint32_param
FN:174,212,sys_data_pool_get_param_value
FN:214,253,sys_data_pool_set_param_from_serialized_bytes
FN:255,292,sys_data_pool_set_item_from_serialized_bytes
FN:294,304,sys_data_pool_set_uint8_param
FN:306,316,sys_data_pool_set_int16_param
FN:318,328,sys_data_pool_set_uint32_param
FN:330,365,sys_data_pool_item1_higher_than_item2
FN:367,403,sys_data_pool_param_higher_than_limit
FN:405,441,sys_data_pool_param_lower_than_limit
FN:443,491,sys_data_pool_param_update_mean
FN:493,547,sys_data_pool_masked_param_equal_than_masked_item
FN:51,55,sys_data_pool_is_PID_valid
FN:57,76,sys_data_pool_item_type
FN:78,102,sys_data_pool_item_type_size
FNDA:3,sys_data_pool_PID_size
FNDA:3,sys_data_pool_is_PID_update_via_TC_enabled
FNDA:0,sys_data_pool_get_int16_param
FNDA:13,sys_data_pool_get_uint8_param
FNDA:0,sys_data_pool_get_uint32_param
FNDA:20,sys_data_pool_get_param_value
FNDA:3,sys_data_pool_set_param_from_serialized_bytes
FNDA:2,sys_data_pool_set_item_from_serialized_bytes
FNDA:18,sys_data_pool_set_uint8_param
FNDA:6,sys_data_pool_set_int16_param
FNDA:513,sys_data_pool_set_uint32_param
FNDA:1,sys_data_pool_item1_higher_than_item2
FNDA:20,sys_data_pool_param_higher_than_limit
FNDA:10,sys_data_pool_param_lower_than_limit
FNDA:0,sys_data_pool_param_update_mean
FNDA:0,sys_data_pool_masked_param_equal_than_masked_item
FNDA:5,sys_data_pool_is_PID_valid
FNDA:665,sys_data_pool_item_type
FNDA:4,sys_data_pool_item_type_size
FNF:19
FNH:15
DA:51,5
DA:53,5
DA:57,665
DA:61,665
DA:63,513
DA:65,152
DA:67,146
DA:68,6
DA:70,6
DA:72,0
DA:74,665
DA:78,4
DA:80,4
DA:82,4
DA:84,0
DA:85,0
DA:86,0
DA:88,4
DA:89,4
DA:90,4
DA:92,0
DA:93,0
DA:94,0
DA:95,0
DA:97,0
DA:98,0
DA:100,4
DA:104,3
DA:107,3
DA:108,3
DA:112,3
DA:116,3
DA:120,3
DA:122,0
DA:123,0
DA:124,0
DA:125,0
DA:127,0
DA:128,0
DA:129,0
DA:131,3
DA:133,3
DA:137,3
DA:141,0
DA:143,0
DA:145,0
DA:146,0
DA:148,0
DA:152,13
DA:154,13
DA:156,13
DA:157,13
DA:159,13
DA:163,0
DA:165,0
DA:167,0
DA:168,0
DA:170,0
DA:174,20
DA:178,20
DA:179,0
DA:186,20
DA:188,20
DA:190,0
DA:191,0
DA:192,0
DA:194,20
DA:195,20
DA:196,20
DA:198,0
DA:199,0
DA:200,0
DA:202,0
DA:204,0
DA:205,0
DA:210,20
DA:214,3
DA:217,3
DA:219,3
DA:220,0
DA:227,3
DA:229,3
DA:231,0
DA:232,0
DA:233,0
DA:235,3
DA:236,3
DA:237,3
DA:239,0
DA:240,0
DA:241,0
DA:243,0
DA:245,0
DA:246,0
DA:251,3
DA:255,2
DA:261,2
DA:262,0
DA:264,2
DA:266,0
DA:269,2
DA:270,0
DA:272,0
DA:273,0
DA:275,2
DA:276,2
DA:277,2
DA:278,0
DA:279,0
DA:280,0
DA:283,0
DA:285,0
DA:286,0
DA:291,2
DA:294,18
DA:297,18
DA:298,18
DA:300,18
DA:301,18
DA:303,18
DA:306,6
DA:309,6
DA:310,6
DA:312,6
DA:313,6
DA:315,6
DA:318,513
DA:321,513
DA:322,513
DA:324,513
DA:325,513
DA:327,513
DA:330,1
DA:334,1
DA:336,1
DA:340,1
DA:342,0
DA:343,0
DA:345,0
DA:347,0
DA:348,0
DA:349,0
DA:350,1
DA:351,1
DA:353,1
DA:354,0
DA:357,0
DA:363,1
DA:367,20
DA:370,20
DA:372,20
DA:375,20
DA:377,20
DA:379,0
DA:380,0
DA:382,0
DA:384,0
DA:385,0
DA:387,0
DA:389,20
DA:390,20
DA:392,20
DA:393,0
DA:396,0
DA:402,20
DA:405,10
DA:408,10
DA:410,10
DA:413,10
DA:415,10
DA:417,0
DA:418,0
DA:420,0
DA:422,0
DA:423,0
DA:425,0
DA:426,10
DA:427,10
DA:429,10
DA:430,0
DA:433,0
DA:439,10
DA:443,0
DA:446,0
DA:448,0
DA:451,0
DA:453,0
DA:455,0
DA:457,0
DA:458,0
DA:459,0
DA:461,0
DA:463,0
DA:465,0
DA:466,0
DA:467,0
DA:470,0
DA:472,0
DA:473,0
DA:474,0
DA:477,0
DA:478,0
DA:480,0
DA:481,0
DA:486,0
DA:489,0
DA:493,0
DA:497,0
DA:499,0
DA:502,0
DA:504,0
DA:506,0
DA:508,0
DA:509,0
DA:511,0
DA:513,0
DA:515,0
DA:517,0
DA:519,0
DA:521,0
DA:523,0
DA:525,0
DA:527,0
DA:529,0
DA:531,0
DA:533,0
DA:535,0
DA:536,0
DA:539,0
DA:545,0
LF:230
LH:100
end_of_record
TN:
SF:/home/atcsol/eclipse-workspace_FIE/asw_pus_freertos_prac9/service_libraries/pus_services/pus_tc_handler/src/pus_tc_handler.c
FN:102,121,tc_handler_start_up_execution
FN:123,142,tc_handler_free_memory
FN:144,164,tc_handler_is_valid_next_appdata_field
FN:166,181,tc_handler_get_uint8_appdata_field
FN:183,199,tc_handler_get_uint16_appdata_field
FN:201,217,tc_handler_get_uint32_appdata_field
FN:219,235,tc_handler_get_uint64_appdata_field
FN:237,253,tc_handler_get_int8_appdata_field
FN:255,271,tc_handler_get_int16_appdata_field
FN:273,289,tc_handler_get_int32_appdata_field
FN:291,307,tc_handler_get_int64_appdata_field
FN:30,48,tc_handler_build_from_descriptor
FN:309,326,tc_handler_get_float_appdata_field
FN:328,349,tc_handler_get_byte_array_appdata_field
FN:353,379,tc_handler_get_tc_mem_descriptor_from_remaining_appdata
FN:55,65,tc_handler_is_tc_accept_ack_enabled
FN:67,77,tc_handler_is_tc_start_exec_ack_enabled
FN:79,89,tc_handler_is_tc_progress_exec_ack_enabled
FN:91,100,tc_handler_is_tc_completion_exec_ack_enabled
FNDA:15,tc_handler_start_up_execution
FNDA:30,tc_handler_free_memory
FNDA:34,tc_handler_is_valid_next_appdata_field
FNDA:15,tc_handler_get_uint8_appdata_field
FNDA:14,tc_handler_get_uint16_appdata_field
FNDA:0,tc_handler_get_uint32_appdata_field
FNDA:0,tc_handler_get_uint64_appdata_field
FNDA:0,tc_handler_get_int8_appdata_field
FNDA:0,tc_handler_get_int16_appdata_field
FNDA:0,tc_handler_get_int32_appdata_field
FNDA:0,tc_handler_get_int64_appdata_field
FNDA:17,tc_handler_build_from_descriptor
FNDA:0,tc_handler_get_float_appdata_field
FNDA:5,tc_handler_get_byte_array_appdata_field
FNDA:1,tc_handler_get_tc_mem_descriptor_from_remaining_appdata
FNDA:14,tc_handler_is_tc_accept_ack_enabled
FNDA:14,tc_handler_is_tc_start_exec_ack_enabled
FNDA:0,tc_handler_is_tc_progress_exec_ack_enabled
FNDA:14,tc_handler_is_tc_completion_exec_ack_enabled
FNF:19
FNH:11
DA:30,17
DA:32,17
DA:34,17
DA:35,0
DA:39,17
DA:42,17
DA:47,17
DA:55,14
DA:57,14
DA:58,14
DA:60,14
DA:64,14
DA:67,14
DA:69,14
DA:70,14
DA:72,14
DA:76,14
DA:79,0
DA:81,0
DA:82,0
DA:84,0
DA:88,0
DA:91,14
DA:92,14
DA:93,14
DA:95,14
DA:99,14
DA:102,15
DA:104,15
DA:106,15
DA:107,0
DA:108,15
DA:110,0
DA:111,0
DA:115,15
DA:119,15
DA:123,30
DA:125,30
DA:127,30
DA:128,0
DA:129,30
DA:131,0
DA:135,30
DA:138,30
DA:140,30
DA:144,34
DA:147,34
DA:149,34
DA:152,34
DA:153,34
DA:156,34
DA:159,34
DA:162,34
DA:166,15
DA:169,15
DA:170,15
DA:171,15
DA:173,15
DA:175,15
DA:177,0
DA:180,15
DA:183,14
DA:185,14
DA:186,14
DA:187,14
DA:189,28
DA:190,14
DA:192,14
DA:194,0
DA:197,14
DA:201,0
DA:203,0
DA:204,0
DA:205,0
DA:207,0
DA:208,0
DA:210,0
DA:212,0
DA:215,0
DA:219,0
DA:221,0
DA:222,0
DA:223,0
DA:225,0
DA:226,0
DA:228,0
DA:230,0
DA:233,0
DA:237,0
DA:240,0
DA:241,0
DA:242,0
DA:244,0
DA:245,0
DA:247,0
DA:249,0
DA:252,0
DA:255,0
DA:257,0
DA:258,0
DA:259,0
DA:261,0
DA:262,0
DA:264,0
DA:266,0
DA:269,0
DA:273,0
DA:275,0
DA:276,0
DA:277,0
DA:279,0
DA:280,0
DA:282,0
DA:284,0
DA:287,0
DA:291,0
DA:293,0
DA:294,0
DA:295,0
DA:297,0
DA:298,0
DA:300,0
DA:302,0
DA:305,0
DA:309,0
DA:312,0
DA:313,0
DA:314,0
DA:316,0
DA:317,0
DA:319,0
DA:321,0
DA:324,0
DA:328,5
DA:330,5
DA:331,5
DA:332,5
DA:334,10
DA:336,5
DA:337,5
DA:338,5
DA:341,5
DA:344,0
DA:347,5
DA:353,1
DA:356,1
DA:358,1
DA:360,1
DA:362,1
DA:364,1
DA:365,1
DA:366,1
DA:368,1
DA:372,0
DA:373,0
DA:375,0
DA:378,1
LF:157
LH:77
end_of_record
TN:
SF:/home/atcsol/eclipse-workspace_FIE/asw_pus_freertos_prac9/service_libraries/pus_services/pus_tm_handler/src/pus_tm_handler.c
FN:107,124,tm_handler_build_df_header
FN:126,149,tm_handler_serialize_df_header
FN:151,183,tm_handler_close_and_tx
FN:185,205,tm_handler_free_mem
FN:207,221,tm_handler_is_valid_next_appdata_field
FN:223,238,tm_handler_append_uint8_appdata_field
FN:240,256,tm_handler_append_uint16_appdata_field
FN:258,274,tm_handler_append_uint32_appdata_field
FN:276,292,tm_handler_append_uint64_appdata_field
FN:294,309,tm_handler_append_int8_appdata_field
FN:311,327,tm_handler_append_int16_appdata_field
FN:329,345,tm_handler_append_int32_appdata_field
FN:34,44,get_next_tm_packet_seq_ctrl
FN:347,363,tm_handler_append_int64_appdata_field
FN:365,384,tm_handler_append_byte_array_appdata_field
FN:386,414,tm_handler_append_data_pool_item
FN:46,76,tm_handler_mem_alloc_and_startup
FN:78,90,tm_handler_build_packet_header
FN:92,105,tm_handler_serialize_packet_header
FNDA:57,tm_handler_build_df_header
FNDA:57,tm_handler_serialize_df_header
FNDA:57,tm_handler_close_and_tx
FNDA:57,tm_handler_free_mem
FNDA:134,tm_handler_is_valid_next_appdata_field
FNDA:31,tm_handler_append_uint8_appdata_field
FNDA:101,tm_handler_append_uint16_appdata_field
FNDA:2,tm_handler_append_uint32_appdata_field
FNDA:0,tm_handler_append_uint64_appdata_field
FNDA:0,tm_handler_append_int8_appdata_field
FNDA:0,tm_handler_append_int16_appdata_field
FNDA:0,tm_handler_append_int32_appdata_field
FNDA:57,get_next_tm_packet_seq_ctrl
FNDA:0,tm_handler_append_int64_appdata_field
FNDA:0,tm_handler_append_byte_array_appdata_field
FNDA:6,tm_handler_append_data_pool_item
FNDA:57,tm_handler_mem_alloc_and_startup
FNDA:57,tm_handler_build_packet_header
FNDA:57,tm_handler_serialize_packet_header
FNF:19
FNH:13
DA:34,57
DA:36,57
DA:39,57
DA:40,57
DA:41,0
DA:43,57
DA:46,57
DA:49,57
DA:51,57
DA:52,57
DA:54,57
DA:56,57
DA:59,57
DA:61,57
DA:62,57
DA:65,0
DA:66,0
DA:68,0
DA:73,0
DA:75,57
DA:78,57
DA:80,57
DA:83,57
DA:84,57
DA:86,57
DA:87,57
DA:88,57
DA:90,57
DA:92,57
DA:94,57
DA:96,57
DA:99,57
DA:102,57
DA:105,57
DA:107,57
DA:109,57
DA:114,57
DA:116,57
DA:118,57
DA:121,57
DA:122,57
DA:124,57
DA:126,57
DA:128,57
DA:131,57
DA:132,57
DA:133,57
DA:136,57
DA:139,57
DA:143,57
DA:146,57
DA:149,57
DA:151,57
DA:153,57
DA:155,57
DA:157,57
DA:159,57
DA:160,57
DA:162,57
DA:163,57
DA:165,57
DA:166,57
DA:167,57
DA:170,57
DA:174,0
DA:175,0
DA:180,0
DA:182,57
DA:185,57
DA:187,57
DA:189,57
DA:191,57
DA:193,57
DA:196,0
DA:198,57
DA:201,0
DA:203,57
DA:207,134
DA:210,134
DA:212,134
DA:213,134
DA:214,134
DA:215,134
DA:216,134
DA:219,134
DA:223,31
DA:226,31
DA:227,31
DA:228,31
DA:230,31
DA:232,31
DA:234,0
DA:237,31
DA:240,101
DA:242,101
DA:243,101
DA:244,101
DA:246,101
DA:247,101
DA:249,101
DA:251,0
DA:254,101
DA:258,2
DA:260,2
DA:261,2
DA:262,2
DA:264,2
DA:265,2
DA:267,2
DA:269,0
DA:272,2
DA:276,0
DA:278,0
DA:279,0
DA:280,0
DA:282,0
DA:283,0
DA:285,0
DA:287,0
DA:290,0
DA:294,0
DA:297,0
DA:298,0
DA:299,0
DA:301,0
DA:303,0
DA:305,0
DA:308,0
DA:311,0
DA:313,0
DA:314,0
DA:315,0
DA:317,0
DA:318,0
DA:320,0
DA:322,0
DA:325,0
DA:329,0
DA:331,0
DA:332,0
DA:333,0
DA:335,0
DA:336,0
DA:338,0
DA:340,0
DA:343,0
DA:347,0
DA:349,0
DA:350,0
DA:351,0
DA:353,0
DA:354,0
DA:356,0
DA:358,0
DA:361,0
DA:365,0
DA:367,0
DA:368,0
DA:369,0
DA:371,0
DA:373,0
DA:374,0
DA:376,0
DA:379,0
DA:382,0
DA:386,6
DA:392,6
DA:394,6
DA:396,0
DA:397,0
DA:399,0
DA:400,6
DA:401,6
DA:402,6
DA:403,6
DA:404,0
DA:405,0
DA:406,0
DA:407,0
DA:408,0
DA:409,0
DA:412,6
LF:182
LH:106
end_of_record
TN:
SF:/home/atcsol/eclipse-workspace_FIE/asw_pus_freertos_prac9/service_libraries/pus_services/src/aux_pus_services_utils.c
FN:31,61,pus_services_TM_X_Y_write_PIDValue
FN:63,98,pus_services_TM_X_Y_write_saved_PIDValue
FNDA:13,pus_services_TM_X_Y_write_PIDValue
FNDA:0,pus_services_TM_X_Y_write_saved_PIDValue
FNF:2
FNH:1
DA:31,13
DA:34,13
DA:36,13
DA:39,13
DA:41,0
DA:42,0
DA:45,0
DA:47,13
DA:48,13
DA:49,13
DA:50,13
DA:51,0
DA:52,0
DA:53,0
DA:55,0
DA:56,0
DA:57,0
DA:60,13
DA:63,0
DA:66,0
DA:68,0
DA:71,0
DA:73,0
DA:74,0
DA:75,0
DA:77,0
DA:79,0
DA:80,0
DA:81,0
DA:83,0
DA:85,0
DA:86,0
DA:87,0
DA:89,0
DA:91,0
DA:92,0
DA:95,0
LF:37
LH:9
end_of_record
TN:
SF:/home/atcsol/eclipse-workspace_FIE/asw_pus_freertos_prac9/service_libraries/pus_services/src/pus_services.c
FN:138,143,pus_services_update_params
FN:38,51,pus_services_startup
FN:53,57,pus_services_mng_reboot
FN:59,136,pus_services_do_FDIR
FNDA:100,pus_services_update_params
FNDA:1,pus_services_startup
FNDA:1,pus_services_mng_reboot
FNDA:100,pus_services_do_FDIR
FNF:4
FNH:4
DA:38,1
DA:42,1
DA:45,1
DA:47,1
DA:50,1
DA:51,1
DA:53,1
DA:56,1
DA:57,0
DA:59,100
DA:65,100
DA:67,1700
DA:69,1600
DA:73,20
DA:74,20
DA:77,20
DA:79,20
DA:80,20
DA:85,20
DA:88,20
DA:90,1
DA:92,1
DA:94,1
DA:101,20
DA:102,0
DA:107,0
DA:111,0
DA:113,0
DA:115,0
DA:117,0
DA:124,0
DA:125,0
DA:127,0
DA:132,20
DA:133,1
DA:136,100
DA:138,100
DA:141,100
DA:143,100
LF:39
LH:29
end_of_record
TN:
SF:/home/atcsol/eclipse-workspace_FIE/asw_pus_freertos_prac9/service_libraries/serialize/src/serialize.c
FN:113,132,deserialize_int64
FN:134,153,deserialize_uint64
FN:155,175,deserialize_float
FN:178,201,serialize_int16
FN:203,220,serialize_uint16
FN:222,241,serialize_int32
FN:243,260,serialize_uint32
FN:262,281,serialize_int64
FN:283,302,serialize_uint64
FN:29,48,deserialize_int16
FN:304,321,serialize_float
FN:50,69,deserialize_uint16
FN:71,90,deserialize_int32
FN:92,111,deserialize_uint32
FNDA:0,deserialize_int64
FNDA:0,deserialize_uint64
FNDA:0,deserialize_float
FNDA:0,serialize_int16
FNDA:537,serialize_uint16
FNDA:0,serialize_int32
FNDA:60,serialize_uint32
FNDA:0,serialize_int64
FNDA:0,serialize_uint64
FNDA:0,deserialize_int16
FNDA:0,serialize_float
FNDA:420,deserialize_uint16
FNDA:0,deserialize_int32
FNDA:2,deserialize_uint32
FNF:14
FNH:4
DA:29,0
DA:36,0
DA:41,0
DA:46,0
DA:50,420
DA:57,1260
DA:62,840
DA:67,420
DA:71,0
DA:78,0
DA:83,0
DA:88,0
DA:92,2
DA:99,10
DA:104,8
DA:109,2
DA:113,0
DA:120,0
DA:125,0
DA:130,0
DA:134,0
DA:141,0
DA:146,0
DA:151,0
DA:155,0
DA:162,0
DA:167,0
DA:172,0
DA:178,0
DA:185,0
DA:187,0
DA:197,0
DA:201,0
DA:203,537
DA:210,537
DA:212,1611
DA:217,1074
DA:220,537
DA:222,0
DA:229,0
DA:231,0
DA:237,0
DA:241,0
DA:243,60
DA:249,60
DA:251,300
DA:256,240
DA:260,60
DA:262,0
DA:269,0
DA:271,0
DA:277,0
DA:281,0
DA:283,0
DA:290,0
DA:292,0
DA:298,0
DA:302,0
DA:304,0
DA:310,0
DA:312,0
DA:317,0
DA:321,0
LF:63
LH:18
end_of_record
TN:
SF:/home/atcsol/eclipse-workspace_FIE/asw_pus_freertos_prac9/uah_asw_mmesp_project.cpp
FN:25,48,main
FNDA:1,main
FNF:1
FNH:1
DA:25,1
DA:36,1
DA:37,1
DA:38,1
DA:39,1
DA:40,1
DA:42,1
DA:44,1
DA:46,0
DA:48,0
LF:10
LH:8
end_of_record
